ARM GAS  C:\Users\jimmy\AppData\Local\Temp\ccFysI3U.s 			page 1


   1              		.syntax unified
   2              		.cpu cortex-m0
   3              		.fpu softvfp
   4              		.eabi_attribute 20, 1
   5              		.eabi_attribute 21, 1
   6              		.eabi_attribute 23, 3
   7              		.eabi_attribute 24, 1
   8              		.eabi_attribute 25, 1
   9              		.eabi_attribute 26, 1
  10              		.eabi_attribute 30, 1
  11              		.eabi_attribute 34, 0
  12              		.eabi_attribute 18, 4
  13              		.thumb
  14              		.syntax unified
  15              		.file	"main.c"
  16              		.text
  17              	.Ltext0:
  18              		.cfi_sections	.debug_frame
  19              		.section	.text.EnableRtcOperation,"ax",%progbits
  20              		.align	2
  21              		.global	EnableRtcOperation
  22              		.code	16
  23              		.thumb_func
  24              		.type	EnableRtcOperation, %function
  25              	EnableRtcOperation:
  26              	.LFB64:
  27              		.file 1 "main.c"
   1:main.c        **** /*******************************************************************************
   2:main.c        **** * File Name: main.c
   3:main.c        **** *
   4:main.c        **** * Version: 1.00
   5:main.c        **** *
   6:main.c        **** * Description:
   7:main.c        **** *  This is the source code for the example project of the RTC_P4 component.
   8:main.c        **** *
   9:main.c        **** ********************************************************************************
  10:main.c        **** * Copyright 2015, Cypress Semiconductor Corporation. All rights reserved.
  11:main.c        **** * This software is owned by Cypress Semiconductor Corporation and is protected
  12:main.c        **** * by and subject to worldwide patent and copyright laws and treaties.
  13:main.c        **** * Therefore, you may use this software only as provided in the license agreement
  14:main.c        **** * accompanying the software package from which you obtained this software.
  15:main.c        **** * CYPRESS AND ITS SUPPLIERS MAKE NO WARRANTY OF ANY KIND, EXPRESS OR IMPLIED,
  16:main.c        **** * WITH REGARD TO THIS SOFTWARE, INCLUDING, BUT NOT LIMITED TO, NONINFRINGEMENT,
  17:main.c        **** * IMPLIED WARRANTIES OF MERCHANTABILITY AND FITNESS FOR A PARTICULAR PURPOSE.
  18:main.c        **** *******************************************************************************/
  19:main.c        **** 
  20:main.c        **** #include <project.h>
  21:main.c        **** #include <stdio.h>
  22:main.c        **** 
  23:main.c        **** #define LFCLK_CYCLES_PER_SECOND     (3276)//(16384)//(32768u)
  24:main.c        **** 
  25:main.c        **** #define WCO_STARTUP_DELAY_CYCLES    (LFCLK_CYCLES_PER_SECOND)
  26:main.c        **** 
  27:main.c        **** /* Time: 13:48:00 */
  28:main.c        **** #define TIME_HOUR           (0x13u)
  29:main.c        **** #define TIME_MIN            (0x48u)
  30:main.c        **** #define TIME_SEC            (0x00u)
ARM GAS  C:\Users\jimmy\AppData\Local\Temp\ccFysI3U.s 			page 2


  31:main.c        **** #define HOUR_OFFSET         (16u)
  32:main.c        **** #define MIN_OFFSET          (8u)
  33:main.c        **** #define TIME_HR_MIN_SEC     ((uint32)(TIME_HOUR << HOUR_OFFSET) | \
  34:main.c        ****                             (uint32)(TIME_MIN << MIN_OFFSET)    | \
  35:main.c        ****                              TIME_SEC)
  36:main.c        **** /* Date: mm/dd/yy :08/10/2020 */
  37:main.c        **** #define DATE_MONTH          (RTC_AUGUST)
  38:main.c        **** #define DATE_DAY            (0x10)
  39:main.c        **** #define DATE_YEAR           (0x2020u)
  40:main.c        **** #define MONTH_OFFSET        (24u)
  41:main.c        **** #define DAY_OFFSET          (16u)
  42:main.c        **** #define DATE_MONTH_DAY_YEAR ((uint32)(DATE_MONTH << MONTH_OFFSET)   | \
  43:main.c        ****                             (uint32)(DATE_DAY << DAY_OFFSET)        | \
  44:main.c        ****                              DATE_YEAR)
  45:main.c        **** 
  46:main.c        **** /* Alarm Time: 15:44:00 */
  47:main.c        **** #define ALARM_HOUR                  (0x04u)
  48:main.c        **** #define ALARM_MIN                   (0x01u)
  49:main.c        **** #define ALARM_SEC                   (0x30u)
  50:main.c        **** #define ALARM_TIME_HR_MIN_SEC       ((uint32)(ALARM_HOUR << HOUR_OFFSET) | \
  51:main.c        ****                                     (uint32)(ALARM_MIN << MIN_OFFSET)    | \
  52:main.c        ****                                      ALARM_SEC)
  53:main.c        **** 
  54:main.c        **** /* Alarm Date: 12/18/2014 */
  55:main.c        **** #define ALARM_DATE_MONTH_DAY_YEAR   (DATE_MONTH_DAY_YEAR)
  56:main.c        **** 
  57:main.c        **** #define TICK_EACH_1_HZ      (1u)
  58:main.c        **** #define TICK_EACH_2_HZ      (2u)
  59:main.c        **** #define TICK_EACH_10_HZ     (10u)
  60:main.c        **** 
  61:main.c        **** /* Alarm structure declaration */
  62:main.c        **** RTC_DATE_TIME alarmTimeDate;
  63:main.c        **** 
  64:main.c        **** /* Alarm flag initialization */
  65:main.c        **** uint32 alarmFlag = 0;
  66:main.c        **** 
  67:main.c        **** /* Interrupt prototypes */
  68:main.c        **** CY_ISR_PROTO(EnableRtcOperation);
  69:main.c        **** CY_ISR_PROTO(UpdateTimeIsrHandler);
  70:main.c        **** CY_ISR_PROTO(AlarmIsrHandler);
  71:main.c        **** 
  72:main.c        **** uint32 ui100mS=0;
  73:main.c        **** 
  74:main.c        **** /*******************************************************************************
  75:main.c        **** * Function Name: main
  76:main.c        **** ********************************************************************************
  77:main.c        **** *
  78:main.c        **** * Summary:
  79:main.c        **** *  The main() function.
  80:main.c        **** *
  81:main.c        **** * Parameters:
  82:main.c        **** *  None.
  83:main.c        **** *
  84:main.c        **** * Return:
  85:main.c        **** *  None.
  86:main.c        **** *
  87:main.c        **** *******************************************************************************/
ARM GAS  C:\Users\jimmy\AppData\Local\Temp\ccFysI3U.s 			page 3


  88:main.c        **** int main()
  89:main.c        **** {
  90:main.c        ****     char timeBuffer[16u];
  91:main.c        ****     char dateBuffer[16u];
  92:main.c        **** 
  93:main.c        ****     uint32 time;
  94:main.c        ****     uint32 date;
  95:main.c        ****     
  96:main.c        ****     
  97:main.c        ****     /* Enable WCO */
  98:main.c        ****     CySysClkWcoStart();
  99:main.c        ****     
 100:main.c        ****     /* Enable global interrupts */
 101:main.c        ****     CyGlobalIntEnable;
 102:main.c        **** 
 103:main.c        ****     /* Alarm structure initialization */
 104:main.c        ****     alarmTimeDate.time = ALARM_TIME_HR_MIN_SEC;
 105:main.c        ****     alarmTimeDate.date = ALARM_DATE_MONTH_DAY_YEAR;
 106:main.c        ****     
 107:main.c        ****     /* Prepare COUNTER0 to use it by CySysTimerDelay function in
 108:main.c        ****      * "INTERRUPT" mode: disable "clear on match" functionality, configure
 109:main.c        ****      * COUNTER0 to generate interrupts on match.
 110:main.c        ****      */
 111:main.c        ****     CySysWdtSetClearOnMatch(CY_SYS_WDT_COUNTER0, 0u);
 112:main.c        ****     CySysWdtSetMode(CY_SYS_WDT_COUNTER0, CY_SYS_WDT_MODE_INT);
 113:main.c        ****     
 114:main.c        ****     /* Enable WDT COUNTER0 */
 115:main.c        ****     CySysWdtEnable(CY_SYS_WDT_COUNTER0_MASK);
 116:main.c        ****     
 117:main.c        ****     /* Disable servicing interrupts from WDT_COUNTER0 to prevent
 118:main.c        ****        trigger callback before the CySysTimerDelay() function. */
 119:main.c        ****     CySysWdtDisableCounterIsr(CY_SYS_WDT_COUNTER0);
 120:main.c        ****     
 121:main.c        ****     /* Register EnableRtcOperation() by the COUNTER0. */
 122:main.c        ****     CySysWdtSetInterruptCallback(CY_SYS_WDT_COUNTER0, EnableRtcOperation);
 123:main.c        ****     
 124:main.c        ****     /* Initiate run the EnableRtcOperation() callback in WCO_STARTUP_DELAY_CYCLES interval. */
 125:main.c        ****     CySysTimerDelay(CY_SYS_WDT_COUNTER0, CY_SYS_TIMER_INTERRUPT, WCO_STARTUP_DELAY_CYCLES);
 126:main.c        ****     
 127:main.c        ****     /* Start RTC component */
 128:main.c        ****     RTC_Start();
 129:main.c        ****     
 130:main.c        ****     /* Set Date and Time */
 131:main.c        ****     RTC_SetDateAndTime(TIME_HR_MIN_SEC,DATE_MONTH_DAY_YEAR);
 132:main.c        **** 
 133:main.c        ****     /* Ignore second mask to call alarm */
 134:main.c        ****     RTC_SetAlarmMask((uint32)~RTC_ALARM_SEC_MASK);
 135:main.c        ****     
 136:main.c        ****     /* Set Alarm Date and Time */
 137:main.c        ****     RTC_SetAlarmDateAndTime(&alarmTimeDate);
 138:main.c        **** 
 139:main.c        ****     /* Set RTC time update period */
 140:main.c        ****     //RTC_SetPeriod(1u, TICK_EACH_1_HZ);
 141:main.c        ****     //RTC_SetPeriod(1u,TICK_EACH_2_HZ);
 142:main.c        ****     RTC_SetPeriod(1u,TICK_EACH_10_HZ);
 143:main.c        ****     /* Set function AlarmIsrHandler to be called when alarm triggers */
 144:main.c        ****     RTC_SetAlarmHandler(AlarmIsrHandler);
ARM GAS  C:\Users\jimmy\AppData\Local\Temp\ccFysI3U.s 			page 4


 145:main.c        ****     
 146:main.c        ****     while(1)
 147:main.c        ****     {
 148:main.c        **** 
 149:main.c        ****         /* Get Date and Time from RTC */
 150:main.c        ****         time = RTC_GetTime();
 151:main.c        ****         date = RTC_GetDate();
 152:main.c        ****        /* Print Date and Time to UART */
 153:main.c        ****         sprintf(timeBuffer, "%02lu:%02lu:%02lu.%1lu", RTC_GetHours(time), RTC_GetMinutes(time), RTC
 154:main.c        ****         sprintf(dateBuffer, "%02lu/%02lu/%02lu", RTC_GetMonth(date), RTC_GetDay(date), RTC_GetYear(
 155:main.c        **** 
 156:main.c        ****         UART_PutString(timeBuffer);
 157:main.c        ****         UART_PutString(" | ");
 158:main.c        ****         UART_PutString(dateBuffer);
 159:main.c        ****         UART_PutString(" | ");
 160:main.c        **** 
 161:main.c        ****         if (alarmFlag == 1u)
 162:main.c        ****         {
 163:main.c        ****             UART_PutString("  Alarm ");
 164:main.c        ****             alarmFlag  = 0u;
 165:main.c        ****         }
 166:main.c        ****         else
 167:main.c        ****         {
 168:main.c        ****             UART_PutString("No alarm");
 169:main.c        ****         }
 170:main.c        **** 
 171:main.c        ****         UART_PutString("\r");
 172:main.c        **** 
 173:main.c        ****         /* Switch to Sleep Mode */
 174:main.c        ****         CySysPmDeepSleep();
 175:main.c        ****     }
 176:main.c        **** }
 177:main.c        **** 
 178:main.c        **** 
 179:main.c        **** /*******************************************************************************
 180:main.c        **** * Function Name: UpdateTimeIsrHandler
 181:main.c        **** ********************************************************************************
 182:main.c        **** * Summary: 
 183:main.c        **** *  This interrupt handler is intended to switch LFCLK source from ILO to WCO and
 184:main.c        **** *  enable RTC operation. 
 185:main.c        **** *
 186:main.c        **** * Parameters:
 187:main.c        **** *  None
 188:main.c        **** *
 189:main.c        **** * Return:
 190:main.c        **** *  None
 191:main.c        **** *
 192:main.c        **** *******************************************************************************/
 193:main.c        **** void EnableRtcOperation(void)
 194:main.c        **** {
  28              		.loc 1 194 0
  29              		.cfi_startproc
  30              		@ args = 0, pretend = 0, frame = 0
  31              		@ frame_needed = 0, uses_anonymous_args = 0
  32 0000 10B5     		push	{r4, lr}
  33              		.cfi_def_cfa_offset 8
  34              		.cfi_offset 4, -8
ARM GAS  C:\Users\jimmy\AppData\Local\Temp\ccFysI3U.s 			page 5


  35              		.cfi_offset 14, -4
 195:main.c        ****     /* Switch LFCLK source from ILO to WCO. */
 196:main.c        ****     CySysClkSetLfclkSource(CY_SYS_CLK_LFCLK_SRC_WCO);
  36              		.loc 1 196 0
  37 0002 8020     		movs	r0, #128
  38 0004 C005     		lsls	r0, r0, #23
  39 0006 FFF7FEFF 		bl	CySysClkSetLfclkSource
  40              	.LVL0:
 197:main.c        ****     
 198:main.c        ****     /* Configure COUNTER0 to generate interrupt every second. */
 199:main.c        ****     CySysWdtDisable(CY_SYS_WDT_COUNTER0_MASK);
  41              		.loc 1 199 0
  42 000a 0120     		movs	r0, #1
  43 000c FFF7FEFF 		bl	CySysWdtDisable
  44              	.LVL1:
 200:main.c        ****     CySysWdtSetClearOnMatch(CY_SYS_WDT_COUNTER0, 1u);
  45              		.loc 1 200 0
  46 0010 0121     		movs	r1, #1
  47 0012 0020     		movs	r0, #0
  48 0014 FFF7FEFF 		bl	CySysWdtSetClearOnMatch
  49              	.LVL2:
 201:main.c        ****     CySysWdtSetMatch(CY_SYS_WDT_COUNTER0, LFCLK_CYCLES_PER_SECOND);
  50              		.loc 1 201 0
  51 0018 0849     		ldr	r1, .L2
  52 001a 0020     		movs	r0, #0
  53 001c FFF7FEFF 		bl	CySysWdtSetMatch
  54              	.LVL3:
 202:main.c        ****     CySysWdtEnable(CY_SYS_WDT_COUNTER0_MASK);
  55              		.loc 1 202 0
  56 0020 0120     		movs	r0, #1
  57 0022 FFF7FEFF 		bl	CySysWdtEnable
  58              	.LVL4:
 203:main.c        ****     
 204:main.c        ****     /* Eegister UpdateTimeIsrHandler() by the COUNTER0. */
 205:main.c        ****     CySysWdtSetInterruptCallback(CY_SYS_WDT_COUNTER0, UpdateTimeIsrHandler);
  59              		.loc 1 205 0
  60 0026 0649     		ldr	r1, .L2+4
  61 0028 0020     		movs	r0, #0
  62 002a FFF7FEFF 		bl	CySysWdtSetInterruptCallback
  63              	.LVL5:
 206:main.c        ****     
 207:main.c        ****     /* Enable the COUNTER0 ISR handler. */
 208:main.c        ****     CySysWdtEnableCounterIsr(CY_SYS_WDT_COUNTER0);
  64              		.loc 1 208 0
  65 002e 0020     		movs	r0, #0
  66 0030 FFF7FEFF 		bl	CySysWdtEnableCounterIsr
  67              	.LVL6:
 209:main.c        ****     
 210:main.c        ****     /* Configure the LFCLK_Out pin to drive it by LFCLK. */
 211:main.c        ****     LFCLK_Out_SetDriveMode(LFCLK_Out_DM_STRONG);
  68              		.loc 1 211 0
  69 0034 0620     		movs	r0, #6
  70 0036 FFF7FEFF 		bl	LFCLK_Out_SetDriveMode
  71              	.LVL7:
 212:main.c        **** }
  72              		.loc 1 212 0
  73              		@ sp needed
ARM GAS  C:\Users\jimmy\AppData\Local\Temp\ccFysI3U.s 			page 6


  74 003a 10BD     		pop	{r4, pc}
  75              	.L3:
  76              		.align	2
  77              	.L2:
  78 003c CC0C0000 		.word	3276
  79 0040 00000000 		.word	UpdateTimeIsrHandler
  80              		.cfi_endproc
  81              	.LFE64:
  82              		.size	EnableRtcOperation, .-EnableRtcOperation
  83              		.section	.text.UpdateTimeIsrHandler,"ax",%progbits
  84              		.align	2
  85              		.global	UpdateTimeIsrHandler
  86              		.code	16
  87              		.thumb_func
  88              		.type	UpdateTimeIsrHandler, %function
  89              	UpdateTimeIsrHandler:
  90              	.LFB65:
 213:main.c        **** 
 214:main.c        **** 
 215:main.c        **** /*******************************************************************************
 216:main.c        **** * Function Name: UpdateTimeIsrHandler
 217:main.c        **** ********************************************************************************
 218:main.c        **** * Summary: 
 219:main.c        **** *  The interrupt handler for WDT counter 0 interrupts. Toggles the LED_WdtIsr 
 220:main.c        **** *  pin.
 221:main.c        **** *
 222:main.c        **** * Parameters:
 223:main.c        **** *  None
 224:main.c        **** *
 225:main.c        **** * Return:
 226:main.c        **** *  None
 227:main.c        **** *
 228:main.c        **** *******************************************************************************/
 229:main.c        **** void UpdateTimeIsrHandler(void)
 230:main.c        **** {
  91              		.loc 1 230 0
  92              		.cfi_startproc
  93              		@ args = 0, pretend = 0, frame = 0
  94              		@ frame_needed = 0, uses_anonymous_args = 0
  95 0000 10B5     		push	{r4, lr}
  96              		.cfi_def_cfa_offset 8
  97              		.cfi_offset 4, -8
  98              		.cfi_offset 14, -4
 231:main.c        ****     /* Toggle pin state */
 232:main.c        ****     ui100mS++;
  99              		.loc 1 232 0
 100 0002 094A     		ldr	r2, .L6
 101 0004 1368     		ldr	r3, [r2]
 102 0006 0133     		adds	r3, r3, #1
 103 0008 1360     		str	r3, [r2]
 233:main.c        ****     if(ui100mS>9)
 104              		.loc 1 233 0
 105 000a 092B     		cmp	r3, #9
 106 000c 02D9     		bls	.L5
 234:main.c        ****         ui100mS=0;
 107              		.loc 1 234 0
 108 000e 0022     		movs	r2, #0
ARM GAS  C:\Users\jimmy\AppData\Local\Temp\ccFysI3U.s 			page 7


 109 0010 054B     		ldr	r3, .L6
 110 0012 1A60     		str	r2, [r3]
 111              	.L5:
 235:main.c        ****     LED_WdtIsr_Write((uint8)~(LED_WdtIsr_Read()));
 112              		.loc 1 235 0
 113 0014 FFF7FEFF 		bl	LED_WdtIsr_Read
 114              	.LVL8:
 115 0018 C043     		mvns	r0, r0
 116 001a C0B2     		uxtb	r0, r0
 117 001c FFF7FEFF 		bl	LED_WdtIsr_Write
 118              	.LVL9:
 236:main.c        ****     RTC_Update();
 119              		.loc 1 236 0
 120 0020 FFF7FEFF 		bl	RTC_Update
 121              	.LVL10:
 237:main.c        **** }
 122              		.loc 1 237 0
 123              		@ sp needed
 124 0024 10BD     		pop	{r4, pc}
 125              	.L7:
 126 0026 C046     		.align	2
 127              	.L6:
 128 0028 00000000 		.word	.LANCHOR0
 129              		.cfi_endproc
 130              	.LFE65:
 131              		.size	UpdateTimeIsrHandler, .-UpdateTimeIsrHandler
 132              		.section	.text.AlarmIsrHandler,"ax",%progbits
 133              		.align	2
 134              		.global	AlarmIsrHandler
 135              		.code	16
 136              		.thumb_func
 137              		.type	AlarmIsrHandler, %function
 138              	AlarmIsrHandler:
 139              	.LFB66:
 238:main.c        **** 
 239:main.c        **** 
 240:main.c        **** /*******************************************************************************
 241:main.c        **** * Function Name: AlarmIsrHandler
 242:main.c        **** ********************************************************************************
 243:main.c        **** * Summary:
 244:main.c        **** *  The interrupt handler for Alarm interrupts. Toggles the LED_WdtInt pin.
 245:main.c        **** *
 246:main.c        **** * Parameters:
 247:main.c        **** *  None
 248:main.c        **** *
 249:main.c        **** * Return:
 250:main.c        **** *  None
 251:main.c        **** *
 252:main.c        **** *******************************************************************************/
 253:main.c        **** void AlarmIsrHandler(void)
 254:main.c        **** {
 140              		.loc 1 254 0
 141              		.cfi_startproc
 142              		@ args = 0, pretend = 0, frame = 0
 143              		@ frame_needed = 0, uses_anonymous_args = 0
 144 0000 10B5     		push	{r4, lr}
 145              		.cfi_def_cfa_offset 8
ARM GAS  C:\Users\jimmy\AppData\Local\Temp\ccFysI3U.s 			page 8


 146              		.cfi_offset 4, -8
 147              		.cfi_offset 14, -4
 255:main.c        ****     alarmFlag = 1u;
 148              		.loc 1 255 0
 149 0002 0122     		movs	r2, #1
 150 0004 054B     		ldr	r3, .L9
 151 0006 5A60     		str	r2, [r3, #4]
 256:main.c        **** 
 257:main.c        ****     /* Toggle pin state */
 258:main.c        ****      LED_Alarm_Write((uint8)~(LED_Alarm_Read()));
 152              		.loc 1 258 0
 153 0008 FFF7FEFF 		bl	LED_Alarm_Read
 154              	.LVL11:
 155 000c C043     		mvns	r0, r0
 156 000e C0B2     		uxtb	r0, r0
 157 0010 FFF7FEFF 		bl	LED_Alarm_Write
 158              	.LVL12:
 259:main.c        **** 
 260:main.c        ****     /* Clear interrupts state */
 261:main.c        ****     RTC_ClearAlarmStatus();
 159              		.loc 1 261 0
 160 0014 FFF7FEFF 		bl	RTC_ClearAlarmStatus
 161              	.LVL13:
 262:main.c        **** }
 162              		.loc 1 262 0
 163              		@ sp needed
 164 0018 10BD     		pop	{r4, pc}
 165              	.L10:
 166 001a C046     		.align	2
 167              	.L9:
 168 001c 00000000 		.word	.LANCHOR0
 169              		.cfi_endproc
 170              	.LFE66:
 171              		.size	AlarmIsrHandler, .-AlarmIsrHandler
 172              		.section	.text.main,"ax",%progbits
 173              		.align	2
 174              		.global	main
 175              		.code	16
 176              		.thumb_func
 177              		.type	main, %function
 178              	main:
 179              	.LFB63:
  89:main.c        ****     char timeBuffer[16u];
 180              		.loc 1 89 0
 181              		.cfi_startproc
 182              		@ args = 0, pretend = 0, frame = 32
 183              		@ frame_needed = 0, uses_anonymous_args = 0
 184 0000 F0B5     		push	{r4, r5, r6, r7, lr}
 185              		.cfi_def_cfa_offset 20
 186              		.cfi_offset 4, -20
 187              		.cfi_offset 5, -16
 188              		.cfi_offset 6, -12
 189              		.cfi_offset 7, -8
 190              		.cfi_offset 14, -4
 191 0002 4746     		mov	r7, r8
 192 0004 80B4     		push	{r7}
 193              		.cfi_def_cfa_offset 24
ARM GAS  C:\Users\jimmy\AppData\Local\Temp\ccFysI3U.s 			page 9


 194              		.cfi_offset 8, -24
 195 0006 8AB0     		sub	sp, sp, #40
 196              		.cfi_def_cfa_offset 64
  98:main.c        ****     
 197              		.loc 1 98 0
 198 0008 FFF7FEFF 		bl	CySysClkWcoStart
 199              	.LVL14:
 101:main.c        **** 
 200              		.loc 1 101 0
 201              		.syntax divided
 202              	@ 101 "main.c" 1
 203 000c 62B6     		CPSIE   i
 204              	@ 0 "" 2
 104:main.c        ****     alarmTimeDate.date = ALARM_DATE_MONTH_DAY_YEAR;
 205              		.loc 1 104 0
 206              		.thumb
 207              		.syntax unified
 208 000e 524C     		ldr	r4, .L15
 209 0010 524B     		ldr	r3, .L15+4
 210 0012 2360     		str	r3, [r4]
 105:main.c        ****     
 211              		.loc 1 105 0
 212 0014 524D     		ldr	r5, .L15+8
 213 0016 6560     		str	r5, [r4, #4]
 111:main.c        ****     CySysWdtSetMode(CY_SYS_WDT_COUNTER0, CY_SYS_WDT_MODE_INT);
 214              		.loc 1 111 0
 215 0018 0021     		movs	r1, #0
 216 001a 0020     		movs	r0, #0
 217 001c FFF7FEFF 		bl	CySysWdtSetClearOnMatch
 218              	.LVL15:
 112:main.c        ****     
 219              		.loc 1 112 0
 220 0020 0121     		movs	r1, #1
 221 0022 0020     		movs	r0, #0
 222 0024 FFF7FEFF 		bl	CySysWdtSetMode
 223              	.LVL16:
 115:main.c        ****     
 224              		.loc 1 115 0
 225 0028 0120     		movs	r0, #1
 226 002a FFF7FEFF 		bl	CySysWdtEnable
 227              	.LVL17:
 119:main.c        ****     
 228              		.loc 1 119 0
 229 002e 0020     		movs	r0, #0
 230 0030 FFF7FEFF 		bl	CySysWdtDisableCounterIsr
 231              	.LVL18:
 122:main.c        ****     
 232              		.loc 1 122 0
 233 0034 4B49     		ldr	r1, .L15+12
 234 0036 0020     		movs	r0, #0
 235 0038 FFF7FEFF 		bl	CySysWdtSetInterruptCallback
 236              	.LVL19:
 125:main.c        ****     
 237              		.loc 1 125 0
 238 003c 4A4A     		ldr	r2, .L15+16
 239 003e 0121     		movs	r1, #1
 240 0040 0020     		movs	r0, #0
ARM GAS  C:\Users\jimmy\AppData\Local\Temp\ccFysI3U.s 			page 10


 241 0042 FFF7FEFF 		bl	CySysTimerDelay
 242              	.LVL20:
 128:main.c        ****     
 243              		.loc 1 128 0
 244 0046 FFF7FEFF 		bl	RTC_Start
 245              	.LVL21:
 131:main.c        **** 
 246              		.loc 1 131 0
 247 004a 2900     		movs	r1, r5
 248 004c 4748     		ldr	r0, .L15+20
 249 004e FFF7FEFF 		bl	RTC_SetDateAndTime
 250              	.LVL22:
 134:main.c        ****     
 251              		.loc 1 134 0
 252 0052 0220     		movs	r0, #2
 253 0054 4042     		rsbs	r0, r0, #0
 254 0056 FFF7FEFF 		bl	RTC_SetAlarmMask
 255              	.LVL23:
 137:main.c        **** 
 256              		.loc 1 137 0
 257 005a 2000     		movs	r0, r4
 258 005c FFF7FEFF 		bl	RTC_SetAlarmDateAndTime
 259              	.LVL24:
 142:main.c        ****     /* Set function AlarmIsrHandler to be called when alarm triggers */
 260              		.loc 1 142 0
 261 0060 0A21     		movs	r1, #10
 262 0062 0120     		movs	r0, #1
 263 0064 FFF7FEFF 		bl	RTC_SetPeriod
 264              	.LVL25:
 144:main.c        ****     
 265              		.loc 1 144 0
 266 0068 4148     		ldr	r0, .L15+24
 267 006a FFF7FEFF 		bl	RTC_SetAlarmHandler
 268              	.LVL26:
 269              	.L14:
 150:main.c        ****         date = RTC_GetDate();
 270              		.loc 1 150 0
 271 006e FFF7FEFF 		bl	RTC_GetTime
 272              	.LVL27:
 273 0072 0500     		movs	r5, r0
 274              	.LVL28:
 151:main.c        ****        /* Print Date and Time to UART */
 275              		.loc 1 151 0
 276 0074 FFF7FEFF 		bl	RTC_GetDate
 277              	.LVL29:
 278 0078 0400     		movs	r4, r0
 279              	.LVL30:
 280              	.LBB14:
 281              	.LBB15:
 282              		.file 2 "Generated_Source\\PSoC4/RTC.h"
   1:Generated_Source\PSoC4/RTC.h **** /***************************************************************************//**
   2:Generated_Source\PSoC4/RTC.h **** * \file Name: RTC.h
   3:Generated_Source\PSoC4/RTC.h **** * \version 1.30
   4:Generated_Source\PSoC4/RTC.h **** *
   5:Generated_Source\PSoC4/RTC.h **** *  This file provides constants and parameter values for the RTC_P4 Component.
   6:Generated_Source\PSoC4/RTC.h **** *
   7:Generated_Source\PSoC4/RTC.h **** ********************************************************************************
ARM GAS  C:\Users\jimmy\AppData\Local\Temp\ccFysI3U.s 			page 11


   8:Generated_Source\PSoC4/RTC.h **** * Copyright 2015-2017, Cypress Semiconductor Corporation.  All rights reserved.
   9:Generated_Source\PSoC4/RTC.h **** * You may use this file only in accordance with the license, terms, conditions,
  10:Generated_Source\PSoC4/RTC.h **** * disclaimers, and limitations in the end user license agreement accompanying
  11:Generated_Source\PSoC4/RTC.h **** * the software package with which this file was provided.
  12:Generated_Source\PSoC4/RTC.h **** *******************************************************************************/
  13:Generated_Source\PSoC4/RTC.h **** 
  14:Generated_Source\PSoC4/RTC.h **** #if !defined(CY_RTC_P4_RTC_H)
  15:Generated_Source\PSoC4/RTC.h **** #define CY_RTC_P4_RTC_H
  16:Generated_Source\PSoC4/RTC.h **** 
  17:Generated_Source\PSoC4/RTC.h **** #include <cytypes.h>
  18:Generated_Source\PSoC4/RTC.h **** #include <CyLib.h>
  19:Generated_Source\PSoC4/RTC.h **** 
  20:Generated_Source\PSoC4/RTC.h **** 
  21:Generated_Source\PSoC4/RTC.h **** /*******************************************************************************
  22:Generated_Source\PSoC4/RTC.h **** *    Data types definition
  23:Generated_Source\PSoC4/RTC.h **** *******************************************************************************/
  24:Generated_Source\PSoC4/RTC.h **** /**
  25:Generated_Source\PSoC4/RTC.h **** * \addtogroup group_enums
  26:Generated_Source\PSoC4/RTC.h **** * \{
  27:Generated_Source\PSoC4/RTC.h **** */
  28:Generated_Source\PSoC4/RTC.h **** /** Daylight saving Time format enumeration */
  29:Generated_Source\PSoC4/RTC.h **** typedef enum
  30:Generated_Source\PSoC4/RTC.h **** {
  31:Generated_Source\PSoC4/RTC.h ****     RTC_DST_DATE_RELATIVE = 0u,  /**< Relative DST format */
  32:Generated_Source\PSoC4/RTC.h ****     RTC_DST_DATE_FIXED = 1u      /**< Fixed DST format */
  33:Generated_Source\PSoC4/RTC.h **** }RTC_DST_DATETYPE_ENUM;
  34:Generated_Source\PSoC4/RTC.h **** /** \} group_enums */
  35:Generated_Source\PSoC4/RTC.h **** 
  36:Generated_Source\PSoC4/RTC.h **** /**
  37:Generated_Source\PSoC4/RTC.h **** * \addtogroup group_structures
  38:Generated_Source\PSoC4/RTC.h **** * \{
  39:Generated_Source\PSoC4/RTC.h **** */
  40:Generated_Source\PSoC4/RTC.h **** 
  41:Generated_Source\PSoC4/RTC.h **** /** RTC_DATE_TIME structure is the data structure that is used to 
  42:Generated_Source\PSoC4/RTC.h **** * save the current time and date (RTC_currentTimeDate), and Alarm time and date 
  43:Generated_Source\PSoC4/RTC.h **** *(RTC_alarmCfgTimeDate)
  44:Generated_Source\PSoC4/RTC.h **** *
  45:Generated_Source\PSoC4/RTC.h **** */
  46:Generated_Source\PSoC4/RTC.h **** typedef struct
  47:Generated_Source\PSoC4/RTC.h **** {
  48:Generated_Source\PSoC4/RTC.h ****     uint32 time;        /**< Time in the format used in API*/
  49:Generated_Source\PSoC4/RTC.h ****     uint32 date;        /**< Date in the format used in API*/
  50:Generated_Source\PSoC4/RTC.h ****     uint32 dayOfWeek;   /**< Day of the week, see \ref group_rtc_day_of_the_week */
  51:Generated_Source\PSoC4/RTC.h ****     uint32 status;      /**< RTC status, see \ref group_rtc_status */
  52:Generated_Source\PSoC4/RTC.h **** }RTC_DATE_TIME;
  53:Generated_Source\PSoC4/RTC.h **** 
  54:Generated_Source\PSoC4/RTC.h **** /*
  55:Generated_Source\PSoC4/RTC.h **** * RTC_DST_TIME structure is the data structure that is used to 
  56:Generated_Source\PSoC4/RTC.h **** * save time and date values for Daylight Savings Time Start and Stop 
  57:Generated_Source\PSoC4/RTC.h **** * (RTC_dstTimeDateStart and RTC_dstTimeDateStop)
  58:Generated_Source\PSoC4/RTC.h **** */
  59:Generated_Source\PSoC4/RTC.h **** typedef struct
  60:Generated_Source\PSoC4/RTC.h **** {
  61:Generated_Source\PSoC4/RTC.h ****     uint32 hour;          /**< Hour value */
  62:Generated_Source\PSoC4/RTC.h ****     uint32 dayOfWeek;     /**< Day of the week, see \ref group_rtc_day_of_the_week */
  63:Generated_Source\PSoC4/RTC.h ****     uint32 dayOfMonth;    /**< Day of the month */
  64:Generated_Source\PSoC4/RTC.h ****     uint32 weekOfMonth;   /**< Week of the month, see \ref group_rtc_dst_week_of_month */
ARM GAS  C:\Users\jimmy\AppData\Local\Temp\ccFysI3U.s 			page 12


  65:Generated_Source\PSoC4/RTC.h ****     uint32 month;         /**< Month value, see \ref group_rtc_month */
  66:Generated_Source\PSoC4/RTC.h ****     uint8  timeFormat;    /**< The DST operation mode, see \ref 
  67:Generated_Source\PSoC4/RTC.h ****                                RTC_DST_DATETYPE_ENUM */
  68:Generated_Source\PSoC4/RTC.h **** }RTC_DST_TIME;
  69:Generated_Source\PSoC4/RTC.h **** /** \} group_structures */
  70:Generated_Source\PSoC4/RTC.h **** 
  71:Generated_Source\PSoC4/RTC.h **** /*******************************************************************************
  72:Generated_Source\PSoC4/RTC.h **** *    Enumerated Types and Parameters
  73:Generated_Source\PSoC4/RTC.h **** *******************************************************************************/
  74:Generated_Source\PSoC4/RTC.h **** /* Time Format setting constants */
  75:Generated_Source\PSoC4/RTC.h **** #define RTC__HOUR_12 1
  76:Generated_Source\PSoC4/RTC.h **** #define RTC__HOUR_24 0
  77:Generated_Source\PSoC4/RTC.h **** 
  78:Generated_Source\PSoC4/RTC.h **** /*  Date Format setting constants */
  79:Generated_Source\PSoC4/RTC.h **** #define RTC__MM_DD_YYYY 0
  80:Generated_Source\PSoC4/RTC.h **** #define RTC__DD_MM_YYYY 1
  81:Generated_Source\PSoC4/RTC.h **** #define RTC__YYYY_MM_DD 2
  82:Generated_Source\PSoC4/RTC.h **** 
  83:Generated_Source\PSoC4/RTC.h **** /* Date Type setting constants */
  84:Generated_Source\PSoC4/RTC.h **** #define RTC__RELATIVE 0
  85:Generated_Source\PSoC4/RTC.h **** #define RTC__FIXED 1
  86:Generated_Source\PSoC4/RTC.h **** 
  87:Generated_Source\PSoC4/RTC.h **** /* DST Hour setting constants */
  88:Generated_Source\PSoC4/RTC.h **** #define RTC__H0000 0
  89:Generated_Source\PSoC4/RTC.h **** #define RTC__H0100 1
  90:Generated_Source\PSoC4/RTC.h **** #define RTC__H0200 2
  91:Generated_Source\PSoC4/RTC.h **** #define RTC__H0300 3
  92:Generated_Source\PSoC4/RTC.h **** #define RTC__H0400 4
  93:Generated_Source\PSoC4/RTC.h **** #define RTC__H0500 5
  94:Generated_Source\PSoC4/RTC.h **** #define RTC__H0600 6
  95:Generated_Source\PSoC4/RTC.h **** #define RTC__H0700 7
  96:Generated_Source\PSoC4/RTC.h **** #define RTC__H0800 8
  97:Generated_Source\PSoC4/RTC.h **** #define RTC__H0900 9
  98:Generated_Source\PSoC4/RTC.h **** #define RTC__H1000 10
  99:Generated_Source\PSoC4/RTC.h **** #define RTC__H1100 11
 100:Generated_Source\PSoC4/RTC.h **** #define RTC__H1200 12
 101:Generated_Source\PSoC4/RTC.h **** #define RTC__H1300 13
 102:Generated_Source\PSoC4/RTC.h **** #define RTC__H1400 14
 103:Generated_Source\PSoC4/RTC.h **** #define RTC__H1500 15
 104:Generated_Source\PSoC4/RTC.h **** #define RTC__H1600 16
 105:Generated_Source\PSoC4/RTC.h **** #define RTC__H1700 17
 106:Generated_Source\PSoC4/RTC.h **** #define RTC__H1800 18
 107:Generated_Source\PSoC4/RTC.h **** #define RTC__H1900 19
 108:Generated_Source\PSoC4/RTC.h **** #define RTC__H2000 20
 109:Generated_Source\PSoC4/RTC.h **** #define RTC__H2100 21
 110:Generated_Source\PSoC4/RTC.h **** #define RTC__H2200 22
 111:Generated_Source\PSoC4/RTC.h **** #define RTC__H2300 23
 112:Generated_Source\PSoC4/RTC.h **** 
 113:Generated_Source\PSoC4/RTC.h **** /* DST DayOfWeek setting constants */
 114:Generated_Source\PSoC4/RTC.h **** #define RTC__SUNDAY 1
 115:Generated_Source\PSoC4/RTC.h **** #define RTC__MONDAY 2
 116:Generated_Source\PSoC4/RTC.h **** #define RTC__TUESDAY 3
 117:Generated_Source\PSoC4/RTC.h **** #define RTC__WEDNESDAY 4
 118:Generated_Source\PSoC4/RTC.h **** #define RTC__THURSDAY 5
 119:Generated_Source\PSoC4/RTC.h **** #define RTC__FRIDAY 6
 120:Generated_Source\PSoC4/RTC.h **** #define RTC__SATURDAY 7
 121:Generated_Source\PSoC4/RTC.h **** 
ARM GAS  C:\Users\jimmy\AppData\Local\Temp\ccFysI3U.s 			page 13


 122:Generated_Source\PSoC4/RTC.h **** /* DST Month setting constants */
 123:Generated_Source\PSoC4/RTC.h **** #define RTC__JAN 1
 124:Generated_Source\PSoC4/RTC.h **** #define RTC__FEB 2
 125:Generated_Source\PSoC4/RTC.h **** #define RTC__MAR 3
 126:Generated_Source\PSoC4/RTC.h **** #define RTC__APR 4
 127:Generated_Source\PSoC4/RTC.h **** #define RTC__MAY 5
 128:Generated_Source\PSoC4/RTC.h **** #define RTC__JUN 6
 129:Generated_Source\PSoC4/RTC.h **** #define RTC__JUL 7
 130:Generated_Source\PSoC4/RTC.h **** #define RTC__AUG 8
 131:Generated_Source\PSoC4/RTC.h **** #define RTC__SEP 9
 132:Generated_Source\PSoC4/RTC.h **** #define RTC__OCT 10
 133:Generated_Source\PSoC4/RTC.h **** #define RTC__NOV 11
 134:Generated_Source\PSoC4/RTC.h **** #define RTC__DEC 12
 135:Generated_Source\PSoC4/RTC.h **** 
 136:Generated_Source\PSoC4/RTC.h **** /* DST WeekOfMonth setting constants */
 137:Generated_Source\PSoC4/RTC.h **** #define RTC__FIRST 1
 138:Generated_Source\PSoC4/RTC.h **** #define RTC__SECOND 2
 139:Generated_Source\PSoC4/RTC.h **** #define RTC__THIRD 3
 140:Generated_Source\PSoC4/RTC.h **** #define RTC__FOURTH 4
 141:Generated_Source\PSoC4/RTC.h **** #define RTC__FIFTH 5
 142:Generated_Source\PSoC4/RTC.h **** #define RTC__LAST 6
 143:Generated_Source\PSoC4/RTC.h **** 
 144:Generated_Source\PSoC4/RTC.h **** 
 145:Generated_Source\PSoC4/RTC.h **** #define RTC_INITIAL_DATA_FORMAT     (0u)
 146:Generated_Source\PSoC4/RTC.h **** #define RTC_INITIAL_TIME_FORMAT     (0u)
 147:Generated_Source\PSoC4/RTC.h **** #define RTC_INITIAL_UPDATE_MODE     (0u)
 148:Generated_Source\PSoC4/RTC.h **** #define RTC_INITIAL_SECOND          (0u)
 149:Generated_Source\PSoC4/RTC.h **** #define RTC_INITIAL_MINUTE          (0u)
 150:Generated_Source\PSoC4/RTC.h **** #define RTC_INITIAL_HOUR            (0u)
 151:Generated_Source\PSoC4/RTC.h **** #define RTC_INITIAL_DAY             (1u)
 152:Generated_Source\PSoC4/RTC.h **** #define RTC_INITIAL_MONTH           (1u)
 153:Generated_Source\PSoC4/RTC.h **** #define RTC_INITIAL_YEAR            (1970u)
 154:Generated_Source\PSoC4/RTC.h **** 
 155:Generated_Source\PSoC4/RTC.h **** #define RTC_INITIAL_ALARM_STATUS    (1u)
 156:Generated_Source\PSoC4/RTC.h **** 
 157:Generated_Source\PSoC4/RTC.h **** #define RTC_INITIAL_DST_STATUS      (1u)
 158:Generated_Source\PSoC4/RTC.h **** #define RTC_INITIAL_DST_DATE_TYPE   (1u)
 159:Generated_Source\PSoC4/RTC.h **** #define RTC_INITIAL_DST_START_MONTH (3uL)
 160:Generated_Source\PSoC4/RTC.h **** #define RTC_INITIAL_DST_START_WOM   (6uL)
 161:Generated_Source\PSoC4/RTC.h **** #define RTC_INITIAL_DST_START_DOM   (22uL)
 162:Generated_Source\PSoC4/RTC.h **** #define RTC_INITIAL_DST_START_DOW   (1uL)
 163:Generated_Source\PSoC4/RTC.h **** #define RTC_INITIAL_DST_START_HRS   (3uL)
 164:Generated_Source\PSoC4/RTC.h **** #define RTC_INITIAL_DST_STOP_MONTH  (10uL)
 165:Generated_Source\PSoC4/RTC.h **** #define RTC_INITIAL_DST_STOP_DOM    (22uL)
 166:Generated_Source\PSoC4/RTC.h **** #define RTC_INITIAL_DST_STOP_DOW    (1uL)
 167:Generated_Source\PSoC4/RTC.h **** #define RTC_INITIAL_DST_STOP_WOM    (6uL)
 168:Generated_Source\PSoC4/RTC.h **** #define RTC_INITIAL_DST_STOP_HRS    (3uL)
 169:Generated_Source\PSoC4/RTC.h **** 
 170:Generated_Source\PSoC4/RTC.h **** /**
 171:Generated_Source\PSoC4/RTC.h **** * \addtogroup group_constants
 172:Generated_Source\PSoC4/RTC.h **** * \{
 173:Generated_Source\PSoC4/RTC.h **** */
 174:Generated_Source\PSoC4/RTC.h **** 
 175:Generated_Source\PSoC4/RTC.h **** /**
 176:Generated_Source\PSoC4/RTC.h **** * \defgroup group_rtc_day_of_the_week Day of the week definitions
 177:Generated_Source\PSoC4/RTC.h **** * \{
 178:Generated_Source\PSoC4/RTC.h **** * Definitions of days in the week
ARM GAS  C:\Users\jimmy\AppData\Local\Temp\ccFysI3U.s 			page 14


 179:Generated_Source\PSoC4/RTC.h **** */
 180:Generated_Source\PSoC4/RTC.h **** #define RTC_SUNDAY     (RTC__SUNDAY)       /**< Sequential number of Sunday in the week */
 181:Generated_Source\PSoC4/RTC.h **** #define RTC_MONDAY     (RTC__MONDAY)       /**< Sequential number of Monday in the week */
 182:Generated_Source\PSoC4/RTC.h **** #define RTC_TUESDAY    (RTC__TUESDAY)      /**< Sequential number of Tuesday in the week */
 183:Generated_Source\PSoC4/RTC.h **** #define RTC_WEDNESDAY  (RTC__WEDNESDAY)    /**< Sequential number of Wednesday in the week */
 184:Generated_Source\PSoC4/RTC.h **** #define RTC_THURSDAY   (RTC__THURSDAY)     /**< Sequential number of Thursday in the week */
 185:Generated_Source\PSoC4/RTC.h **** #define RTC_FRIDAY     (RTC__FRIDAY)       /**< Sequential number of Friday in the week */
 186:Generated_Source\PSoC4/RTC.h **** #define RTC_SATURDAY   (RTC__SATURDAY)     /**< Sequential number of Saturday in the week */
 187:Generated_Source\PSoC4/RTC.h **** /** \} group_rtc_day_of_the_week */
 188:Generated_Source\PSoC4/RTC.h **** 
 189:Generated_Source\PSoC4/RTC.h **** /**
 190:Generated_Source\PSoC4/RTC.h **** * \defgroup group_rtc_dst_week_of_month DST Week of month setting constants definitions
 191:Generated_Source\PSoC4/RTC.h **** * \{
 192:Generated_Source\PSoC4/RTC.h **** * Week of month setting constants definitions for Daylight Saving Time feature
 193:Generated_Source\PSoC4/RTC.h **** */
 194:Generated_Source\PSoC4/RTC.h **** #define RTC_FIRST      (RTC__FIRST)   /**< First week in the month */
 195:Generated_Source\PSoC4/RTC.h **** #define RTC_SECOND     (RTC__SECOND)  /**< Second week in the month  */
 196:Generated_Source\PSoC4/RTC.h **** #define RTC_THIRD      (RTC__THIRD)   /**< Third week in the month  */
 197:Generated_Source\PSoC4/RTC.h **** #define RTC_FOURTH     (RTC__FOURTH)  /**< Fourth week in the month  */
 198:Generated_Source\PSoC4/RTC.h **** #define RTC_FIFTH      (RTC__FIFTH)   /**< Fifth week in the month  */
 199:Generated_Source\PSoC4/RTC.h **** #define RTC_LAST       (RTC__LAST)    /**< Last week in the month  */
 200:Generated_Source\PSoC4/RTC.h **** /** \} group_rtc_dst_week_of_month */
 201:Generated_Source\PSoC4/RTC.h **** 
 202:Generated_Source\PSoC4/RTC.h **** /**
 203:Generated_Source\PSoC4/RTC.h **** * \defgroup group_rtc_month Month definitions
 204:Generated_Source\PSoC4/RTC.h **** * \{
 205:Generated_Source\PSoC4/RTC.h **** * Constants definition for Months
 206:Generated_Source\PSoC4/RTC.h **** */
 207:Generated_Source\PSoC4/RTC.h **** #define RTC_JANUARY    (RTC__JAN)    /**< Sequential number of January in the year */
 208:Generated_Source\PSoC4/RTC.h **** #define RTC_FEBRUARY   (RTC__FEB)    /**< Sequential number of February in the year */
 209:Generated_Source\PSoC4/RTC.h **** #define RTC_MARCH      (RTC__MAR)    /**< Sequential number of March in the year */
 210:Generated_Source\PSoC4/RTC.h **** #define RTC_APRIL      (RTC__APR)    /**< Sequential number of April in the year */
 211:Generated_Source\PSoC4/RTC.h **** #define RTC_MAY        (RTC__MAY)    /**< Sequential number of May in the year */
 212:Generated_Source\PSoC4/RTC.h **** #define RTC_JUNE       (RTC__JUN)    /**< Sequential number of June in the year */
 213:Generated_Source\PSoC4/RTC.h **** #define RTC_JULY       (RTC__JUL)    /**< Sequential number of July in the year */
 214:Generated_Source\PSoC4/RTC.h **** #define RTC_AUGUST     (RTC__AUG)    /**< Sequential number of August in the year */
 215:Generated_Source\PSoC4/RTC.h **** #define RTC_SEPTEMBER  (RTC__SEP)    /**< Sequential number of September in the year */
 216:Generated_Source\PSoC4/RTC.h **** #define RTC_OCTOBER    (RTC__OCT)    /**< Sequential number of October in the year */
 217:Generated_Source\PSoC4/RTC.h **** #define RTC_NOVEMBER   (RTC__NOV)    /**< Sequential number of November in the year */
 218:Generated_Source\PSoC4/RTC.h **** #define RTC_DECEMBER   (RTC__DEC)    /**< Sequential number of December in the year */
 219:Generated_Source\PSoC4/RTC.h **** /** \} group_rtc_month */
 220:Generated_Source\PSoC4/RTC.h **** 
 221:Generated_Source\PSoC4/RTC.h **** /**
 222:Generated_Source\PSoC4/RTC.h **** * \defgroup group_rtc_am_pm AM/PM status definitions
 223:Generated_Source\PSoC4/RTC.h **** * \{
 224:Generated_Source\PSoC4/RTC.h **** * Definitions for 12 hour format for indicating the AM/PM period of day
 225:Generated_Source\PSoC4/RTC.h **** */
 226:Generated_Source\PSoC4/RTC.h **** #define RTC_AM                 (0u)    /**< AM period of day */
 227:Generated_Source\PSoC4/RTC.h **** #define RTC_PM                 (1u)    /**< PM period of day */
 228:Generated_Source\PSoC4/RTC.h **** /** \} group_rtc_am_pm */
 229:Generated_Source\PSoC4/RTC.h **** 
 230:Generated_Source\PSoC4/RTC.h **** /**
 231:Generated_Source\PSoC4/RTC.h **** * \defgroup group_rtc_hour_format Hour format definitions
 232:Generated_Source\PSoC4/RTC.h **** * \{
 233:Generated_Source\PSoC4/RTC.h **** * Definitions for hour format
 234:Generated_Source\PSoC4/RTC.h **** */
 235:Generated_Source\PSoC4/RTC.h **** #define RTC_12_HOURS_FORMAT    (RTC__HOUR_12) /**< The 12 hour (AM/PM) format */
ARM GAS  C:\Users\jimmy\AppData\Local\Temp\ccFysI3U.s 			page 15


 236:Generated_Source\PSoC4/RTC.h **** #define RTC_24_HOURS_FORMAT    (RTC__HOUR_24) /**< The 24 hour format */
 237:Generated_Source\PSoC4/RTC.h **** /** \} group_rtc_hour_format */
 238:Generated_Source\PSoC4/RTC.h **** 
 239:Generated_Source\PSoC4/RTC.h **** /**
 240:Generated_Source\PSoC4/RTC.h **** * \defgroup group_rtc_days_in_month Number of days in month definitions
 241:Generated_Source\PSoC4/RTC.h **** * \{
 242:Generated_Source\PSoC4/RTC.h **** * Definition of days in current month
 243:Generated_Source\PSoC4/RTC.h **** */
 244:Generated_Source\PSoC4/RTC.h **** #define RTC_DAYS_IN_JANUARY     (31u)    /**< Number of days in January  */
 245:Generated_Source\PSoC4/RTC.h **** #define RTC_DAYS_IN_FEBRUARY    (28u)    /**< Number of days in February */
 246:Generated_Source\PSoC4/RTC.h **** #define RTC_DAYS_IN_MARCH       (31u)    /**< Number of days in March */
 247:Generated_Source\PSoC4/RTC.h **** #define RTC_DAYS_IN_APRIL       (30u)    /**< Number of days in April */
 248:Generated_Source\PSoC4/RTC.h **** #define RTC_DAYS_IN_MAY         (31u)    /**< Number of days in May */
 249:Generated_Source\PSoC4/RTC.h **** #define RTC_DAYS_IN_JUNE        (30u)    /**< Number of days in June */
 250:Generated_Source\PSoC4/RTC.h **** #define RTC_DAYS_IN_JULY        (31u)    /**< Number of days in July */
 251:Generated_Source\PSoC4/RTC.h **** #define RTC_DAYS_IN_AUGUST      (31u)    /**< Number of days in August */
 252:Generated_Source\PSoC4/RTC.h **** #define RTC_DAYS_IN_SEPTEMBER   (30u)    /**< Number of days in September */
 253:Generated_Source\PSoC4/RTC.h **** #define RTC_DAYS_IN_OCTOBER     (31u)    /**< Number of days in October */
 254:Generated_Source\PSoC4/RTC.h **** #define RTC_DAYS_IN_NOVEMBER    (30u)    /**< Number of days in November */
 255:Generated_Source\PSoC4/RTC.h **** #define RTC_DAYS_IN_DECEMBER    (31u)    /**< Number of days in December */
 256:Generated_Source\PSoC4/RTC.h **** /** \} group_rtc_days_in_month */
 257:Generated_Source\PSoC4/RTC.h **** 
 258:Generated_Source\PSoC4/RTC.h **** /**
 259:Generated_Source\PSoC4/RTC.h **** * \defgroup group_rtc_status Definitions of the RTC status values
 260:Generated_Source\PSoC4/RTC.h **** * \{
 261:Generated_Source\PSoC4/RTC.h **** * Definitions for status software register, which has flags for DST (DST),
 262:Generated_Source\PSoC4/RTC.h **** * Leap Year (LY), AM/PM (AM_PM).
 263:Generated_Source\PSoC4/RTC.h **** */
 264:Generated_Source\PSoC4/RTC.h **** 
 265:Generated_Source\PSoC4/RTC.h **** /** Status of Daylight Saving Time. This bit
 266:Generated_Source\PSoC4/RTC.h **** * goes high when the current time and date match the DST time and date and the 
 267:Generated_Source\PSoC4/RTC.h **** * time is incremented. This bit goes low after the DST interval and the time is 
 268:Generated_Source\PSoC4/RTC.h **** * decremented.
 269:Generated_Source\PSoC4/RTC.h **** */
 270:Generated_Source\PSoC4/RTC.h **** #define RTC_STATUS_DST     (1uL << RTC_STATUS_DST_OFFSET)
 271:Generated_Source\PSoC4/RTC.h **** 
 272:Generated_Source\PSoC4/RTC.h **** /** Status of Leap Year. This bit goes high when the current year is a leap year */
 273:Generated_Source\PSoC4/RTC.h **** #define RTC_STATUS_LY      (1uL << RTC_STATUS_LY_OFFSET)
 274:Generated_Source\PSoC4/RTC.h **** 
 275:Generated_Source\PSoC4/RTC.h **** /** Status of Current Time. This bit is low from midnight to noon and high from 
 276:Generated_Source\PSoC4/RTC.h **** *  noon to midnight. */
 277:Generated_Source\PSoC4/RTC.h **** #define RTC_STATUS_AM_PM   (1uL << RTC_STATUS_AM_PM_OFFSET)
 278:Generated_Source\PSoC4/RTC.h **** /** \} group_rtc_status */
 279:Generated_Source\PSoC4/RTC.h **** 
 280:Generated_Source\PSoC4/RTC.h **** /**
 281:Generated_Source\PSoC4/RTC.h **** * \defgroup group_rtc_alarm_mask Definitions for Alarm Mask software register
 282:Generated_Source\PSoC4/RTC.h **** * \{
 283:Generated_Source\PSoC4/RTC.h **** * Definitions for Alarm Mask software register. These masks allow 
 284:Generated_Source\PSoC4/RTC.h **** * matching the alarm value register with the current value register.
 285:Generated_Source\PSoC4/RTC.h **** */
 286:Generated_Source\PSoC4/RTC.h **** 
 287:Generated_Source\PSoC4/RTC.h **** /** The second alarm mask allows matching the alarm second register with the 
 288:Generated_Source\PSoC4/RTC.h **** *   current second register.
 289:Generated_Source\PSoC4/RTC.h **** */
 290:Generated_Source\PSoC4/RTC.h **** #define RTC_ALARM_SEC_MASK         (0x00000001uL)
 291:Generated_Source\PSoC4/RTC.h **** 
 292:Generated_Source\PSoC4/RTC.h **** /** The minute alarm mask allows matching the alarm minute register with the 
ARM GAS  C:\Users\jimmy\AppData\Local\Temp\ccFysI3U.s 			page 16


 293:Generated_Source\PSoC4/RTC.h **** *   current minute register.
 294:Generated_Source\PSoC4/RTC.h **** */
 295:Generated_Source\PSoC4/RTC.h **** #define RTC_ALARM_MIN_MASK         (0x00000002uL)
 296:Generated_Source\PSoC4/RTC.h **** 
 297:Generated_Source\PSoC4/RTC.h **** /** The hour alarm mask allows matching the alarm hour register with the 
 298:Generated_Source\PSoC4/RTC.h **** *   current hour register.
 299:Generated_Source\PSoC4/RTC.h **** */
 300:Generated_Source\PSoC4/RTC.h **** #define RTC_ALARM_HOUR_MASK        (0x00000004uL)
 301:Generated_Source\PSoC4/RTC.h **** 
 302:Generated_Source\PSoC4/RTC.h **** /** The day of the week alarm mask allows matching the alarm hour register with 
 303:Generated_Source\PSoC4/RTC.h **** *   the current day of the week register.
 304:Generated_Source\PSoC4/RTC.h **** */
 305:Generated_Source\PSoC4/RTC.h **** #define RTC_ALARM_DAYOFWEEK_MASK   (0x00000008uL)
 306:Generated_Source\PSoC4/RTC.h **** 
 307:Generated_Source\PSoC4/RTC.h **** /** The day of the Month alarm mask allows matching the alarm hour register with 
 308:Generated_Source\PSoC4/RTC.h **** *   the current day of the Month register.
 309:Generated_Source\PSoC4/RTC.h **** */
 310:Generated_Source\PSoC4/RTC.h **** #define RTC_ALARM_DAYOFMONTH_MASK  (0x00000010uL)
 311:Generated_Source\PSoC4/RTC.h **** 
 312:Generated_Source\PSoC4/RTC.h **** /** The month alarm mask allows matching the alarm hour register with the
 313:Generated_Source\PSoC4/RTC.h **** *   current month register.
 314:Generated_Source\PSoC4/RTC.h **** */
 315:Generated_Source\PSoC4/RTC.h **** #define RTC_ALARM_MONTH_MASK       (0x00000020uL)
 316:Generated_Source\PSoC4/RTC.h **** 
 317:Generated_Source\PSoC4/RTC.h **** /** The year alarm mask allows matching the alarm hour register with the
 318:Generated_Source\PSoC4/RTC.h **** *   current year register.
 319:Generated_Source\PSoC4/RTC.h **** */
 320:Generated_Source\PSoC4/RTC.h **** #define RTC_ALARM_YEAR_MASK        (0x00000040uL)
 321:Generated_Source\PSoC4/RTC.h **** 
 322:Generated_Source\PSoC4/RTC.h **** /** \} group_rtc_alarm_mask */
 323:Generated_Source\PSoC4/RTC.h **** /** \} group_constants */
 324:Generated_Source\PSoC4/RTC.h **** 
 325:Generated_Source\PSoC4/RTC.h **** #define RTC_DAYS_PER_WEEK       (7u)
 326:Generated_Source\PSoC4/RTC.h **** 
 327:Generated_Source\PSoC4/RTC.h **** #define RTC_MONTHS_PER_YEAR     (12uL)
 328:Generated_Source\PSoC4/RTC.h **** 
 329:Generated_Source\PSoC4/RTC.h **** #define RTC_HOURS_PER_DAY       (24uL)
 330:Generated_Source\PSoC4/RTC.h **** #define RTC_HOURS_PER_HALF_DAY  (12uL)
 331:Generated_Source\PSoC4/RTC.h **** 
 332:Generated_Source\PSoC4/RTC.h **** #define RTC_SECONDS_PER_MINUTE  (60uL)
 333:Generated_Source\PSoC4/RTC.h **** #define RTC_SECONDS_PER_HOUR    (3600uL)
 334:Generated_Source\PSoC4/RTC.h **** #define RTC_SECONDS_PER_DAY     (24uL * 3600uL)
 335:Generated_Source\PSoC4/RTC.h **** 
 336:Generated_Source\PSoC4/RTC.h **** #define RTC_SECONDS_PER_LEAP_YEAR    (366uL * 24uL * 3600uL)
 337:Generated_Source\PSoC4/RTC.h **** #define RTC_SECONDS_PER_NONLEAP_YEAR (365uL * 24uL * 3600uL)
 338:Generated_Source\PSoC4/RTC.h **** 
 339:Generated_Source\PSoC4/RTC.h **** #define RTC_UNIX_TIME_PM        ((12uL * 3600uL) + 1uL)
 340:Generated_Source\PSoC4/RTC.h **** 
 341:Generated_Source\PSoC4/RTC.h **** /* Unix time begins in 1970 year */
 342:Generated_Source\PSoC4/RTC.h **** #define RTC_YEAR_0             (1970u)
 343:Generated_Source\PSoC4/RTC.h **** 
 344:Generated_Source\PSoC4/RTC.h **** /* Definition of date register fields */
 345:Generated_Source\PSoC4/RTC.h **** #if(RTC_INITIAL_DATA_FORMAT == RTC__MM_DD_YYYY)
 346:Generated_Source\PSoC4/RTC.h ****     #define RTC_10_MONTH_OFFSET   (28u)
 347:Generated_Source\PSoC4/RTC.h ****     #define RTC_MONTH_OFFSET      (24u)
 348:Generated_Source\PSoC4/RTC.h ****     #define RTC_10_DAY_OFFSET     (20u)
 349:Generated_Source\PSoC4/RTC.h ****     #define RTC_DAY_OFFSET        (16u)
ARM GAS  C:\Users\jimmy\AppData\Local\Temp\ccFysI3U.s 			page 17


 350:Generated_Source\PSoC4/RTC.h ****     #define RTC_1000_YEAR_OFFSET  (12u)
 351:Generated_Source\PSoC4/RTC.h ****     #define RTC_100_YEAR_OFFSET   (8u)
 352:Generated_Source\PSoC4/RTC.h ****     #define RTC_10_YEAR_OFFSET    (4u)
 353:Generated_Source\PSoC4/RTC.h ****     #define RTC_YEAR_OFFSET       (0u)
 354:Generated_Source\PSoC4/RTC.h **** #elif(RTC_INITIAL_DATA_FORMAT == RTC__DD_MM_YYYY)
 355:Generated_Source\PSoC4/RTC.h ****     #define RTC_10_MONTH_OFFSET   (20u)
 356:Generated_Source\PSoC4/RTC.h ****     #define RTC_MONTH_OFFSET      (16u)
 357:Generated_Source\PSoC4/RTC.h ****     #define RTC_10_DAY_OFFSET     (28u)
 358:Generated_Source\PSoC4/RTC.h ****     #define RTC_DAY_OFFSET        (24u)
 359:Generated_Source\PSoC4/RTC.h ****     #define RTC_1000_YEAR_OFFSET  (12u)
 360:Generated_Source\PSoC4/RTC.h ****     #define RTC_100_YEAR_OFFSET   (8u)
 361:Generated_Source\PSoC4/RTC.h ****     #define RTC_10_YEAR_OFFSET    (4u)
 362:Generated_Source\PSoC4/RTC.h ****     #define RTC_YEAR_OFFSET       (0u)
 363:Generated_Source\PSoC4/RTC.h **** #else
 364:Generated_Source\PSoC4/RTC.h ****     #define RTC_10_MONTH_OFFSET   (12u)
 365:Generated_Source\PSoC4/RTC.h ****     #define RTC_MONTH_OFFSET      (8u)
 366:Generated_Source\PSoC4/RTC.h ****     #define RTC_10_DAY_OFFSET     (4u)
 367:Generated_Source\PSoC4/RTC.h ****     #define RTC_DAY_OFFSET        (0u)
 368:Generated_Source\PSoC4/RTC.h ****     #define RTC_1000_YEAR_OFFSET  (28u)
 369:Generated_Source\PSoC4/RTC.h ****     #define RTC_100_YEAR_OFFSET   (24u)
 370:Generated_Source\PSoC4/RTC.h ****     #define RTC_10_YEAR_OFFSET    (20u)
 371:Generated_Source\PSoC4/RTC.h ****     #define RTC_YEAR_OFFSET       (16u)
 372:Generated_Source\PSoC4/RTC.h **** #endif /* (RTC_INITIAL_DATA_FORMAT == RTC__MM_DD_YYYY) */
 373:Generated_Source\PSoC4/RTC.h **** 
 374:Generated_Source\PSoC4/RTC.h **** #define RTC_10_MONTH_MASK          (0x00000001uL << RTC_10_MONTH_OFFSET)
 375:Generated_Source\PSoC4/RTC.h **** #define RTC_MONTH_MASK             (0x0000000FuL << RTC_MONTH_OFFSET)
 376:Generated_Source\PSoC4/RTC.h **** #define RTC_10_DAY_MASK            (0x00000003uL << RTC_10_DAY_OFFSET)
 377:Generated_Source\PSoC4/RTC.h **** #define RTC_DAY_MASK               (0x0000000FuL << RTC_DAY_OFFSET)
 378:Generated_Source\PSoC4/RTC.h **** #define RTC_1000_YEAR_MASK         (0x00000003uL << RTC_1000_YEAR_OFFSET)
 379:Generated_Source\PSoC4/RTC.h **** #define RTC_100_YEAR_MASK          (0x0000000FuL << RTC_100_YEAR_OFFSET)
 380:Generated_Source\PSoC4/RTC.h **** #define RTC_10_YEAR_MASK           (0x0000000FuL << RTC_10_YEAR_OFFSET)
 381:Generated_Source\PSoC4/RTC.h **** #define RTC_YEAR_MASK              (0x0000000FuL << RTC_YEAR_OFFSET)
 382:Generated_Source\PSoC4/RTC.h **** 
 383:Generated_Source\PSoC4/RTC.h **** #define  RTC_MONTH_FULL_MASK       (RTC_10_MONTH_MASK  | RTC_MONTH_MASK)
 384:Generated_Source\PSoC4/RTC.h **** #define  RTC_DAY_FULL_MASK         (RTC_10_DAY_MASK    | RTC_DAY_MASK)
 385:Generated_Source\PSoC4/RTC.h **** #define  RTC_YEAR_FULL_MASK        (RTC_1000_YEAR_MASK | RTC_100_YEAR_MASK |\
 386:Generated_Source\PSoC4/RTC.h ****                                                  RTC_10_YEAR_MASK   | RTC_YEAR_MASK)
 387:Generated_Source\PSoC4/RTC.h **** 
 388:Generated_Source\PSoC4/RTC.h **** /* Definition of time register fields */
 389:Generated_Source\PSoC4/RTC.h **** #define RTC_TIME_FORMAT_OFFSET     (23u)
 390:Generated_Source\PSoC4/RTC.h **** #define RTC_PERIOD_OF_DAY_OFFSET   (22u)
 391:Generated_Source\PSoC4/RTC.h **** #define RTC_10_HOURS_OFFSET        (20u)
 392:Generated_Source\PSoC4/RTC.h **** #define RTC_HOURS_OFFSET           (16u)
 393:Generated_Source\PSoC4/RTC.h **** #define RTC_10_MINUTES_OFFSET      (12u)
 394:Generated_Source\PSoC4/RTC.h **** #define RTC_MINUTES_OFFSET         (8u)
 395:Generated_Source\PSoC4/RTC.h **** #define RTC_10_SECONDS_OFFSET      (4u)
 396:Generated_Source\PSoC4/RTC.h **** #define RTC_SECONDS_OFFSET         (0u)
 397:Generated_Source\PSoC4/RTC.h **** 
 398:Generated_Source\PSoC4/RTC.h **** #define RTC_TIME_FORMAT_MASK       (0x00000001uL << RTC_TIME_FORMAT_OFFSET)
 399:Generated_Source\PSoC4/RTC.h **** #define RTC_PERIOD_OF_DAY_MASK     (0x00000001uL << RTC_PERIOD_OF_DAY_OFFSET)
 400:Generated_Source\PSoC4/RTC.h **** #define RTC_10_HOURS_MASK          (0x00000003uL << RTC_10_HOURS_OFFSET)
 401:Generated_Source\PSoC4/RTC.h **** #define RTC_HOURS_MASK             (0x0000000FuL << RTC_HOURS_OFFSET)
 402:Generated_Source\PSoC4/RTC.h **** #define RTC_10_MINUTES_MASK        (0x00000007uL << RTC_10_MINUTES_OFFSET)
 403:Generated_Source\PSoC4/RTC.h **** #define RTC_MINUTES_MASK           (0x0000000FuL << RTC_MINUTES_OFFSET)
 404:Generated_Source\PSoC4/RTC.h **** #define RTC_10_SECONDS_MASK        (0x00000007uL << RTC_10_SECONDS_OFFSET)
 405:Generated_Source\PSoC4/RTC.h **** #define RTC_SECONDS_MASK           (0x0000000FuL << RTC_SECONDS_OFFSET)
 406:Generated_Source\PSoC4/RTC.h **** 
ARM GAS  C:\Users\jimmy\AppData\Local\Temp\ccFysI3U.s 			page 18


 407:Generated_Source\PSoC4/RTC.h **** #define RTC_HOURS_FULL_MASK        (RTC_10_HOURS_MASK   | RTC_HOURS_MASK)
 408:Generated_Source\PSoC4/RTC.h **** #define RTC_MINUTES_FULL_MASK      (RTC_10_MINUTES_MASK | RTC_MINUTES_MASK)
 409:Generated_Source\PSoC4/RTC.h **** #define RTC_SECONDS_FULL_MASK      (RTC_10_SECONDS_MASK | RTC_SECONDS_MASK)
 410:Generated_Source\PSoC4/RTC.h **** 
 411:Generated_Source\PSoC4/RTC.h **** #define RTC_STATUS_DST_OFFSET      (1u)
 412:Generated_Source\PSoC4/RTC.h **** #define RTC_STATUS_ALARM_OFFSET    (2u)
 413:Generated_Source\PSoC4/RTC.h **** #define RTC_STATUS_LY_OFFSET       (3u)
 414:Generated_Source\PSoC4/RTC.h **** #define RTC_STATUS_AM_PM_OFFSET    (4u)
 415:Generated_Source\PSoC4/RTC.h **** 
 416:Generated_Source\PSoC4/RTC.h **** /* Number of bits per one BCD digit */
 417:Generated_Source\PSoC4/RTC.h **** #define RTC_BCD_NUMBER_SIZE        (4u)
 418:Generated_Source\PSoC4/RTC.h **** #define RTC_BCD_ONE_DIGIT_MASK     (0x0000000FuL)
 419:Generated_Source\PSoC4/RTC.h **** 
 420:Generated_Source\PSoC4/RTC.h **** 
 421:Generated_Source\PSoC4/RTC.h **** /*******************************************************************************
 422:Generated_Source\PSoC4/RTC.h **** *    External Variables
 423:Generated_Source\PSoC4/RTC.h **** *******************************************************************************/
 424:Generated_Source\PSoC4/RTC.h **** /**
 425:Generated_Source\PSoC4/RTC.h **** * \addtogroup group_globals
 426:Generated_Source\PSoC4/RTC.h **** * \{
 427:Generated_Source\PSoC4/RTC.h **** */
 428:Generated_Source\PSoC4/RTC.h **** 
 429:Generated_Source\PSoC4/RTC.h **** /**
 430:Generated_Source\PSoC4/RTC.h **** * Indicates whether the RTC has been initialized; The variable is initialized to
 431:Generated_Source\PSoC4/RTC.h **** * 0 and set to 1 the first time RTC_Start() is called. This allows the component
 432:Generated_Source\PSoC4/RTC.h **** * to restart without reinitialization after the first call to the RTC_Start() 
 433:Generated_Source\PSoC4/RTC.h **** * routine.
 434:Generated_Source\PSoC4/RTC.h **** */
 435:Generated_Source\PSoC4/RTC.h **** extern uint8  RTC_initVar;
 436:Generated_Source\PSoC4/RTC.h **** 
 437:Generated_Source\PSoC4/RTC.h **** /** The DST start/stop status */
 438:Generated_Source\PSoC4/RTC.h **** extern uint8  RTC_dstStatus;
 439:Generated_Source\PSoC4/RTC.h **** 
 440:Generated_Source\PSoC4/RTC.h **** /**
 441:Generated_Source\PSoC4/RTC.h **** * The uint64 variable represents the standard Unix time (number of seconds 
 442:Generated_Source\PSoC4/RTC.h **** * elapsed from January 1, 1970 00:00 hours UTC) in 64-bit 
 443:Generated_Source\PSoC4/RTC.h **** */
 444:Generated_Source\PSoC4/RTC.h **** extern volatile uint64 RTC_unixTime;
 445:Generated_Source\PSoC4/RTC.h **** 
 446:Generated_Source\PSoC4/RTC.h **** /** The values for the time and date of the DST start */
 447:Generated_Source\PSoC4/RTC.h **** extern RTC_DST_TIME RTC_dstStartTime;
 448:Generated_Source\PSoC4/RTC.h **** 
 449:Generated_Source\PSoC4/RTC.h **** /** The values for the time and date of the DST stop */
 450:Generated_Source\PSoC4/RTC.h **** extern RTC_DST_TIME RTC_dstStopTime;
 451:Generated_Source\PSoC4/RTC.h **** 
 452:Generated_Source\PSoC4/RTC.h **** /**
 453:Generated_Source\PSoC4/RTC.h **** * The last updated time and date values are stored in this structure (update 
 454:Generated_Source\PSoC4/RTC.h **** * happens in Get time/date APIs)
 455:Generated_Source\PSoC4/RTC.h **** */
 456:Generated_Source\PSoC4/RTC.h **** extern RTC_DATE_TIME RTC_currentTimeDate;
 457:Generated_Source\PSoC4/RTC.h **** 
 458:Generated_Source\PSoC4/RTC.h **** /** The alarm time and date values are stored in this variable */
 459:Generated_Source\PSoC4/RTC.h **** extern RTC_DATE_TIME RTC_alarmCfgTimeDate;
 460:Generated_Source\PSoC4/RTC.h **** 
 461:Generated_Source\PSoC4/RTC.h **** /**
 462:Generated_Source\PSoC4/RTC.h **** * This variable is used to mask alarm events; mask seconds alarm, mask minutes 
 463:Generated_Source\PSoC4/RTC.h **** * alarm, and so on. It will have bit masks for each time item masking that item 
ARM GAS  C:\Users\jimmy\AppData\Local\Temp\ccFysI3U.s 			page 19


 464:Generated_Source\PSoC4/RTC.h **** * for alarm generation
 465:Generated_Source\PSoC4/RTC.h **** */
 466:Generated_Source\PSoC4/RTC.h **** extern uint32  RTC_alarmCfgMask;
 467:Generated_Source\PSoC4/RTC.h **** 
 468:Generated_Source\PSoC4/RTC.h **** /**
 469:Generated_Source\PSoC4/RTC.h **** * This variable is used to indicate current active alarm status per time item 
 470:Generated_Source\PSoC4/RTC.h **** * used in the alarm; whether seconds alarm is active, minute's alarm is active, 
 471:Generated_Source\PSoC4/RTC.h **** * and so on. It will have bit masks for each time item (seconds, minutes, hours,
 472:Generated_Source\PSoC4/RTC.h **** * day, and so on) showing the status
 473:Generated_Source\PSoC4/RTC.h **** */
 474:Generated_Source\PSoC4/RTC.h **** extern uint32 RTC_alarmCurStatus;
 475:Generated_Source\PSoC4/RTC.h **** 
 476:Generated_Source\PSoC4/RTC.h **** /** \} group_globals */
 477:Generated_Source\PSoC4/RTC.h **** 
 478:Generated_Source\PSoC4/RTC.h **** extern void (*RTC_alarmCallbackPtr)(void);
 479:Generated_Source\PSoC4/RTC.h **** 
 480:Generated_Source\PSoC4/RTC.h **** extern const uint16 RTC_daysBeforeMonthTbl[RTC_MONTHS_PER_YEAR];
 481:Generated_Source\PSoC4/RTC.h **** extern const uint8  RTC_daysInMonthTbl[RTC_MONTHS_PER_YEAR];
 482:Generated_Source\PSoC4/RTC.h **** 
 483:Generated_Source\PSoC4/RTC.h **** 
 484:Generated_Source\PSoC4/RTC.h **** /*******************************************************************************
 485:Generated_Source\PSoC4/RTC.h **** *    Function Prototypes
 486:Generated_Source\PSoC4/RTC.h **** *******************************************************************************/
 487:Generated_Source\PSoC4/RTC.h **** /**
 488:Generated_Source\PSoC4/RTC.h **** * \addtogroup group_general
 489:Generated_Source\PSoC4/RTC.h **** * \{
 490:Generated_Source\PSoC4/RTC.h **** */
 491:Generated_Source\PSoC4/RTC.h **** void   RTC_Start(void);
 492:Generated_Source\PSoC4/RTC.h **** void   RTC_Stop(void);
 493:Generated_Source\PSoC4/RTC.h **** void   RTC_Init(void);
 494:Generated_Source\PSoC4/RTC.h **** void   RTC_SetUnixTime(uint64 unixTime);
 495:Generated_Source\PSoC4/RTC.h **** uint64 RTC_GetUnixTime(void);
 496:Generated_Source\PSoC4/RTC.h **** void   RTC_SetPeriod(uint32 ticks, uint32 refOneSecTicks);
 497:Generated_Source\PSoC4/RTC.h **** uint32 RTC_GetPeriod(void);
 498:Generated_Source\PSoC4/RTC.h **** uint32 RTC_GetRefOneSec(void);
 499:Generated_Source\PSoC4/RTC.h **** void   RTC_SetDateAndTime(uint32 inputTime, uint32 inputDate);
 500:Generated_Source\PSoC4/RTC.h **** void   RTC_GetDateAndTime(RTC_DATE_TIME* dateTime);
 501:Generated_Source\PSoC4/RTC.h **** uint32 RTC_GetTime(void);
 502:Generated_Source\PSoC4/RTC.h **** uint32 RTC_GetDate(void);
 503:Generated_Source\PSoC4/RTC.h **** void   RTC_SetAlarmDateAndTime(const RTC_DATE_TIME* alarmTime);
 504:Generated_Source\PSoC4/RTC.h **** void   RTC_GetAlarmDateAndTime(RTC_DATE_TIME* alarmTimeDate);
 505:Generated_Source\PSoC4/RTC.h **** void   RTC_SetAlarmMask(uint32 mask);
 506:Generated_Source\PSoC4/RTC.h **** uint32 RTC_GetAlarmMask(void);
 507:Generated_Source\PSoC4/RTC.h **** uint32 RTC_ReadStatus(void);
 508:Generated_Source\PSoC4/RTC.h **** uint32 RTC_GetAlarmStatus(void);
 509:Generated_Source\PSoC4/RTC.h **** void   RTC_ClearAlarmStatus(void);
 510:Generated_Source\PSoC4/RTC.h **** void   RTC_SetDSTStartTime(const RTC_DST_TIME* dstStartTime,
 511:Generated_Source\PSoC4/RTC.h ****                                               RTC_DST_DATETYPE_ENUM type);
 512:Generated_Source\PSoC4/RTC.h **** void   RTC_SetDSTStopTime(const RTC_DST_TIME* dstStopTime,
 513:Generated_Source\PSoC4/RTC.h ****                                              RTC_DST_DATETYPE_ENUM type);
 514:Generated_Source\PSoC4/RTC.h **** uint32 RTC_ConvertBCDToDec(uint32 bcdNum);
 515:Generated_Source\PSoC4/RTC.h **** uint32 RTC_ConvertDecToBCD(uint32 decNum);
 516:Generated_Source\PSoC4/RTC.h **** void   RTC_Update(void);
 517:Generated_Source\PSoC4/RTC.h **** void*  RTC_SetAlarmHandler(void (*CallbackFunction)(void));
 518:Generated_Source\PSoC4/RTC.h **** 
 519:Generated_Source\PSoC4/RTC.h **** static uint32 RTC_ConstructDate(uint32 month, uint32 day, uint32 year);
 520:Generated_Source\PSoC4/RTC.h **** static uint32 RTC_ConstructTime(uint32 timeFormat, uint32 stateAmPm, uint32 hour, uint32 min, uint3
ARM GAS  C:\Users\jimmy\AppData\Local\Temp\ccFysI3U.s 			page 20


 521:Generated_Source\PSoC4/RTC.h **** /** \} group_general */
 522:Generated_Source\PSoC4/RTC.h **** 
 523:Generated_Source\PSoC4/RTC.h **** static uint32 RTC_GetTimeFormat(uint32 inputTime);
 524:Generated_Source\PSoC4/RTC.h **** static uint32 RTC_SetTimeFormat(uint32 inputTime, uint32 timeFormat);
 525:Generated_Source\PSoC4/RTC.h **** 
 526:Generated_Source\PSoC4/RTC.h **** /**
 527:Generated_Source\PSoC4/RTC.h **** * \addtogroup group_general
 528:Generated_Source\PSoC4/RTC.h **** * \{
 529:Generated_Source\PSoC4/RTC.h **** */
 530:Generated_Source\PSoC4/RTC.h **** static uint32 RTC_LeapYear(uint32 year);
 531:Generated_Source\PSoC4/RTC.h **** static uint32 RTC_IsBitSet(uint32 var, uint32 mask);
 532:Generated_Source\PSoC4/RTC.h **** static uint32 RTC_GetSecond(uint32 inputTime);
 533:Generated_Source\PSoC4/RTC.h **** static uint32 RTC_GetMinutes(uint32 inputTime);
 534:Generated_Source\PSoC4/RTC.h **** static uint32 RTC_GetHours(uint32 inputTime);
 535:Generated_Source\PSoC4/RTC.h **** static uint32 RTC_GetAmPm(uint32 inputTime);
 536:Generated_Source\PSoC4/RTC.h **** static uint32 RTC_GetDay(uint32 date);
 537:Generated_Source\PSoC4/RTC.h **** static uint32 RTC_GetMonth(uint32 date);
 538:Generated_Source\PSoC4/RTC.h **** static uint32 RTC_GetYear(uint32 date);
 539:Generated_Source\PSoC4/RTC.h **** /** \} group_general */
 540:Generated_Source\PSoC4/RTC.h **** 
 541:Generated_Source\PSoC4/RTC.h **** static uint32 RTC_SetSecond(uint32 inputTime, uint32 inputSecond);
 542:Generated_Source\PSoC4/RTC.h **** static uint32 RTC_SetMinutes(uint32 inputTime, uint32 inputMinute);
 543:Generated_Source\PSoC4/RTC.h **** static uint32 RTC_SetHours(uint32 inputTime, uint32 inputHours);
 544:Generated_Source\PSoC4/RTC.h **** static uint32 RTC_SetAmPm(uint32 inputTime, uint32 periodOfDay);
 545:Generated_Source\PSoC4/RTC.h **** static uint32 RTC_SetDay(uint32 inputDate, uint32 inputDay);
 546:Generated_Source\PSoC4/RTC.h **** static uint32 RTC_SetMonth(uint32 inputDate, uint32 inputMonth);
 547:Generated_Source\PSoC4/RTC.h **** static uint32 RTC_SetYear(uint32 inputDate, uint32 inputYear);
 548:Generated_Source\PSoC4/RTC.h **** 
 549:Generated_Source\PSoC4/RTC.h **** uint64 RTC_ConstructUnixAlarmTime(const RTC_DATE_TIME* alarmTime, uint8 alarmCfgMask);
 550:Generated_Source\PSoC4/RTC.h **** uint64 RTC_GetDstUnixTime(const RTC_DST_TIME* dstTime);
 551:Generated_Source\PSoC4/RTC.h **** uint64 RTC_GetNexAlarmTime(uint64 curUnixTime, uint8 alarmCfgMask);
 552:Generated_Source\PSoC4/RTC.h **** 
 553:Generated_Source\PSoC4/RTC.h **** static uint32 RTC_GetNextMinSec(uint32 curVal);
 554:Generated_Source\PSoC4/RTC.h **** static uint32 RTC_GetNextHour(uint32 curVal);
 555:Generated_Source\PSoC4/RTC.h **** static uint32 RTC_GetNextDay(uint32 curYear, uint32 curMonth, uint32 curDay, uint32 alarmCfgMask);
 556:Generated_Source\PSoC4/RTC.h **** static uint32 RTC_GetNextMonth(uint32 curMonth);
 557:Generated_Source\PSoC4/RTC.h **** static uint32 RTC_GetNextYear(uint32 curYear);
 558:Generated_Source\PSoC4/RTC.h **** static uint32 RTC_GetDayOfWeek(uint32 day, uint32 month, uint32 year);
 559:Generated_Source\PSoC4/RTC.h **** static uint32 RTC_DaysBeforeMonth(uint32 month, uint32 year);
 560:Generated_Source\PSoC4/RTC.h **** 
 561:Generated_Source\PSoC4/RTC.h **** uint32 RTC_DaysInMonth(uint32 month, uint32 year);
 562:Generated_Source\PSoC4/RTC.h **** 
 563:Generated_Source\PSoC4/RTC.h **** /**
 564:Generated_Source\PSoC4/RTC.h **** * \addtogroup group_general
 565:Generated_Source\PSoC4/RTC.h **** * \{
 566:Generated_Source\PSoC4/RTC.h **** */
 567:Generated_Source\PSoC4/RTC.h **** void   RTC_UnixToDateTime(RTC_DATE_TIME* dateTime, uint64 unixTime, uint32 timeFormat);
 568:Generated_Source\PSoC4/RTC.h **** uint64 RTC_DateTimeToUnix(uint32 inputDate, uint32 inputTime);
 569:Generated_Source\PSoC4/RTC.h **** 
 570:Generated_Source\PSoC4/RTC.h **** #if defined(CYDEV_RTC_SOURCE_WDT)
 571:Generated_Source\PSoC4/RTC.h ****     #if((0u != CYDEV_WDT_GENERATE_ISR) && (0u == RTC_INITIAL_UPDATE_MODE))
 572:Generated_Source\PSoC4/RTC.h ****         static void RTC_CySysRtcSetCallback(uint32 wdtNumber);
 573:Generated_Source\PSoC4/RTC.h ****         static void RTC_CySysRtcResetCallback(uint32 wdtNumber);
 574:Generated_Source\PSoC4/RTC.h ****     #endif /* ((0u != CYDEV_WDT_GENERATE_ISR) && (0u == RTC_INITIAL_UPDATE_MODE)) */
 575:Generated_Source\PSoC4/RTC.h **** #endif /* (CYDEV_RTC_SOURCE_WDT) */
 576:Generated_Source\PSoC4/RTC.h **** 
 577:Generated_Source\PSoC4/RTC.h **** /** \} group_general */
ARM GAS  C:\Users\jimmy\AppData\Local\Temp\ccFysI3U.s 			page 21


 578:Generated_Source\PSoC4/RTC.h **** 
 579:Generated_Source\PSoC4/RTC.h **** uint32 RTC_RelativeToFixed(uint32 dayOfWeek, uint32 weekOfMonth, uint32 month, uint32 year);
 580:Generated_Source\PSoC4/RTC.h **** 
 581:Generated_Source\PSoC4/RTC.h **** 
 582:Generated_Source\PSoC4/RTC.h **** 
 583:Generated_Source\PSoC4/RTC.h **** /*******************************************************************************
 584:Generated_Source\PSoC4/RTC.h **** * Function Name: RTC_IsBitSet
 585:Generated_Source\PSoC4/RTC.h **** ****************************************************************************//**
 586:Generated_Source\PSoC4/RTC.h **** *
 587:Generated_Source\PSoC4/RTC.h **** * Checks the state of a bit passed through parameter.
 588:Generated_Source\PSoC4/RTC.h **** *
 589:Generated_Source\PSoC4/RTC.h **** * \param var
 590:Generated_Source\PSoC4/RTC.h **** * The variable to be checked.
 591:Generated_Source\PSoC4/RTC.h **** *
 592:Generated_Source\PSoC4/RTC.h **** * \param mask
 593:Generated_Source\PSoC4/RTC.h **** * The mask for a bit to be checked.
 594:Generated_Source\PSoC4/RTC.h **** *
 595:Generated_Source\PSoC4/RTC.h **** * \return
 596:Generated_Source\PSoC4/RTC.h **** *  0u - Bit is not set. <br> 1u - Bit is set.
 597:Generated_Source\PSoC4/RTC.h **** *
 598:Generated_Source\PSoC4/RTC.h **** *******************************************************************************/
 599:Generated_Source\PSoC4/RTC.h **** static CY_INLINE uint32 RTC_IsBitSet(uint32 var, uint32 mask)
 600:Generated_Source\PSoC4/RTC.h **** {
 601:Generated_Source\PSoC4/RTC.h ****     return ((mask == (var & mask)) ? 1Lu : 0Lu);
 602:Generated_Source\PSoC4/RTC.h **** }
 603:Generated_Source\PSoC4/RTC.h **** 
 604:Generated_Source\PSoC4/RTC.h **** 
 605:Generated_Source\PSoC4/RTC.h **** /*******************************************************************************
 606:Generated_Source\PSoC4/RTC.h **** * Function Name: RTC_LeapYear
 607:Generated_Source\PSoC4/RTC.h **** ****************************************************************************//**
 608:Generated_Source\PSoC4/RTC.h **** *
 609:Generated_Source\PSoC4/RTC.h **** * Checks whether the year passed through the parameter is leap or no.
 610:Generated_Source\PSoC4/RTC.h **** *
 611:Generated_Source\PSoC4/RTC.h **** * \param year
 612:Generated_Source\PSoC4/RTC.h **** * The year to be checked.
 613:Generated_Source\PSoC4/RTC.h **** *
 614:Generated_Source\PSoC4/RTC.h **** * \return
 615:Generated_Source\PSoC4/RTC.h **** * 0u - The year is not leap <br> 1u - The year is leap.
 616:Generated_Source\PSoC4/RTC.h **** *
 617:Generated_Source\PSoC4/RTC.h **** *******************************************************************************/
 618:Generated_Source\PSoC4/RTC.h **** static CY_INLINE uint32 RTC_LeapYear(uint32 year)
 619:Generated_Source\PSoC4/RTC.h **** {
 620:Generated_Source\PSoC4/RTC.h ****     uint32 retVal;
 621:Generated_Source\PSoC4/RTC.h **** 
 622:Generated_Source\PSoC4/RTC.h ****     if(((0u == (year % 4Lu)) && (0u != (year % 100Lu))) || (0u == (year % 400Lu)))
 623:Generated_Source\PSoC4/RTC.h ****     {
 624:Generated_Source\PSoC4/RTC.h ****         retVal = 1uL;
 625:Generated_Source\PSoC4/RTC.h ****     }
 626:Generated_Source\PSoC4/RTC.h ****     else
 627:Generated_Source\PSoC4/RTC.h ****     {
 628:Generated_Source\PSoC4/RTC.h ****         retVal = 0uL;
 629:Generated_Source\PSoC4/RTC.h ****     }
 630:Generated_Source\PSoC4/RTC.h **** 
 631:Generated_Source\PSoC4/RTC.h ****     return(retVal);
 632:Generated_Source\PSoC4/RTC.h **** }
 633:Generated_Source\PSoC4/RTC.h **** 
 634:Generated_Source\PSoC4/RTC.h **** 
ARM GAS  C:\Users\jimmy\AppData\Local\Temp\ccFysI3U.s 			page 22


 635:Generated_Source\PSoC4/RTC.h **** /*******************************************************************************
 636:Generated_Source\PSoC4/RTC.h **** * Function Name: RTC_GetSecond
 637:Generated_Source\PSoC4/RTC.h **** ****************************************************************************//**
 638:Generated_Source\PSoC4/RTC.h **** *
 639:Generated_Source\PSoC4/RTC.h **** * Returns the seconds value from the time value that is passed as a/the 
 640:Generated_Source\PSoC4/RTC.h **** * parameter.
 641:Generated_Source\PSoC4/RTC.h **** *
 642:Generated_Source\PSoC4/RTC.h **** * \param inputTime
 643:Generated_Source\PSoC4/RTC.h **** * The time value.
 644:Generated_Source\PSoC4/RTC.h **** *
 645:Generated_Source\PSoC4/RTC.h **** * \return
 646:Generated_Source\PSoC4/RTC.h **** * The seconds value.
 647:Generated_Source\PSoC4/RTC.h **** *
 648:Generated_Source\PSoC4/RTC.h **** *******************************************************************************/
 649:Generated_Source\PSoC4/RTC.h **** static CY_INLINE uint32 RTC_GetSecond(uint32 inputTime)
 650:Generated_Source\PSoC4/RTC.h **** {
 651:Generated_Source\PSoC4/RTC.h ****     uint32 retVal;
 652:Generated_Source\PSoC4/RTC.h **** 
 653:Generated_Source\PSoC4/RTC.h ****     retVal  = ((inputTime & RTC_10_SECONDS_MASK) >> RTC_10_SECONDS_OFFSET) * 10u;
 654:Generated_Source\PSoC4/RTC.h ****     retVal += (inputTime & RTC_SECONDS_MASK) >> RTC_SECONDS_OFFSET;
 655:Generated_Source\PSoC4/RTC.h **** 
 656:Generated_Source\PSoC4/RTC.h ****     return (retVal);
 657:Generated_Source\PSoC4/RTC.h **** }
 658:Generated_Source\PSoC4/RTC.h **** 
 659:Generated_Source\PSoC4/RTC.h **** 
 660:Generated_Source\PSoC4/RTC.h **** /*******************************************************************************
 661:Generated_Source\PSoC4/RTC.h **** * Function Name: RTC_GetMinutes
 662:Generated_Source\PSoC4/RTC.h **** ****************************************************************************//**
 663:Generated_Source\PSoC4/RTC.h **** *
 664:Generated_Source\PSoC4/RTC.h **** * Returns the minutes value from the time value that is passed as a/the 
 665:Generated_Source\PSoC4/RTC.h **** * parameter.
 666:Generated_Source\PSoC4/RTC.h **** *
 667:Generated_Source\PSoC4/RTC.h **** * \param inputTime
 668:Generated_Source\PSoC4/RTC.h **** * The time value.
 669:Generated_Source\PSoC4/RTC.h **** *
 670:Generated_Source\PSoC4/RTC.h **** * \return
 671:Generated_Source\PSoC4/RTC.h **** * The minutes value.
 672:Generated_Source\PSoC4/RTC.h **** *
 673:Generated_Source\PSoC4/RTC.h **** *******************************************************************************/
 674:Generated_Source\PSoC4/RTC.h **** static CY_INLINE uint32 RTC_GetMinutes(uint32 inputTime)
 675:Generated_Source\PSoC4/RTC.h **** {
 676:Generated_Source\PSoC4/RTC.h ****     uint32 retVal;
 677:Generated_Source\PSoC4/RTC.h **** 
 678:Generated_Source\PSoC4/RTC.h ****     retVal  = ((inputTime & RTC_10_MINUTES_MASK) >> RTC_10_MINUTES_OFFSET) * 10u;
 679:Generated_Source\PSoC4/RTC.h ****     retVal += (inputTime & RTC_MINUTES_MASK) >> RTC_MINUTES_OFFSET;
 680:Generated_Source\PSoC4/RTC.h **** 
 681:Generated_Source\PSoC4/RTC.h ****     return (retVal);
 682:Generated_Source\PSoC4/RTC.h **** }
 683:Generated_Source\PSoC4/RTC.h **** 
 684:Generated_Source\PSoC4/RTC.h **** 
 685:Generated_Source\PSoC4/RTC.h **** /*******************************************************************************
 686:Generated_Source\PSoC4/RTC.h **** * Function Name: RTC_GetHours
 687:Generated_Source\PSoC4/RTC.h **** ****************************************************************************//**
 688:Generated_Source\PSoC4/RTC.h **** *
 689:Generated_Source\PSoC4/RTC.h **** * Returns the hours value from the time value that is passed as a/the parameter.
 690:Generated_Source\PSoC4/RTC.h **** *
 691:Generated_Source\PSoC4/RTC.h **** * \param inputTime
ARM GAS  C:\Users\jimmy\AppData\Local\Temp\ccFysI3U.s 			page 23


 692:Generated_Source\PSoC4/RTC.h **** * The time value.
 693:Generated_Source\PSoC4/RTC.h **** *
 694:Generated_Source\PSoC4/RTC.h **** * \return
 695:Generated_Source\PSoC4/RTC.h **** * The hours value.
 696:Generated_Source\PSoC4/RTC.h **** *
 697:Generated_Source\PSoC4/RTC.h **** *******************************************************************************/
 698:Generated_Source\PSoC4/RTC.h **** static CY_INLINE uint32 RTC_GetHours(uint32 inputTime)
 699:Generated_Source\PSoC4/RTC.h **** {
 700:Generated_Source\PSoC4/RTC.h ****     uint32 retVal;
 701:Generated_Source\PSoC4/RTC.h **** 
 702:Generated_Source\PSoC4/RTC.h ****     retVal  = ((inputTime & RTC_10_HOURS_MASK) >> RTC_10_HOURS_OFFSET) * 10u;
 283              		.loc 2 702 0
 284 007a 2B0D     		lsrs	r3, r5, #20
 285 007c 0322     		movs	r2, #3
 286 007e 9046     		mov	r8, r2
 287 0080 1340     		ands	r3, r2
 288 0082 9A00     		lsls	r2, r3, #2
 289 0084 D318     		adds	r3, r2, r3
 290 0086 5900     		lsls	r1, r3, #1
 291              	.LVL31:
 703:Generated_Source\PSoC4/RTC.h ****     retVal += (inputTime & RTC_HOURS_MASK) >> RTC_HOURS_OFFSET;
 292              		.loc 2 703 0
 293 0088 2A0C     		lsrs	r2, r5, #16
 294 008a 0F26     		movs	r6, #15
 295 008c 3240     		ands	r2, r6
 296 008e 8A18     		adds	r2, r1, r2
 297              	.LVL32:
 298              	.LBE15:
 299              	.LBE14:
 300              	.LBB16:
 301              	.LBB17:
 678:Generated_Source\PSoC4/RTC.h ****     retVal += (inputTime & RTC_MINUTES_MASK) >> RTC_MINUTES_OFFSET;
 302              		.loc 2 678 0
 303 0090 280B     		lsrs	r0, r5, #12
 304              	.LVL33:
 305 0092 0727     		movs	r7, #7
 306 0094 3840     		ands	r0, r7
 307 0096 8300     		lsls	r3, r0, #2
 308 0098 1818     		adds	r0, r3, r0
 309 009a 4100     		lsls	r1, r0, #1
 310              	.LVL34:
 679:Generated_Source\PSoC4/RTC.h **** 
 311              		.loc 2 679 0
 312 009c 2B0A     		lsrs	r3, r5, #8
 313 009e 3340     		ands	r3, r6
 314 00a0 CB18     		adds	r3, r1, r3
 315              	.LVL35:
 316              	.LBE17:
 317              	.LBE16:
 318              	.LBB18:
 319              	.LBB19:
 653:Generated_Source\PSoC4/RTC.h ****     retVal += (inputTime & RTC_SECONDS_MASK) >> RTC_SECONDS_OFFSET;
 320              		.loc 2 653 0
 321 00a2 2909     		lsrs	r1, r5, #4
 322 00a4 3940     		ands	r1, r7
 323 00a6 8800     		lsls	r0, r1, #2
 324 00a8 4118     		adds	r1, r0, r1
ARM GAS  C:\Users\jimmy\AppData\Local\Temp\ccFysI3U.s 			page 24


 325 00aa 4800     		lsls	r0, r1, #1
 326              	.LVL36:
 654:Generated_Source\PSoC4/RTC.h **** 
 327              		.loc 2 654 0
 328 00ac 3540     		ands	r5, r6
 329              	.LVL37:
 330 00ae 4519     		adds	r5, r0, r5
 331              	.LVL38:
 332              	.LBE19:
 333              	.LBE18:
 153:main.c        ****         sprintf(dateBuffer, "%02lu/%02lu/%02lu", RTC_GetMonth(date), RTC_GetDay(date), RTC_GetYear(
 334              		.loc 1 153 0
 335 00b0 304F     		ldr	r7, .L15+28
 336 00b2 3968     		ldr	r1, [r7]
 337 00b4 0191     		str	r1, [sp, #4]
 338 00b6 0095     		str	r5, [sp]
 339 00b8 2F49     		ldr	r1, .L15+32
 340 00ba 06A8     		add	r0, sp, #24
 341 00bc FFF7FEFF 		bl	sprintf
 342              	.LVL39:
 343              	.LBB20:
 344              	.LBB21:
 704:Generated_Source\PSoC4/RTC.h **** 
 705:Generated_Source\PSoC4/RTC.h ****     return (retVal);
 706:Generated_Source\PSoC4/RTC.h **** }
 707:Generated_Source\PSoC4/RTC.h **** 
 708:Generated_Source\PSoC4/RTC.h **** 
 709:Generated_Source\PSoC4/RTC.h **** /*******************************************************************************
 710:Generated_Source\PSoC4/RTC.h **** * Function Name: RTC_GetAmPm
 711:Generated_Source\PSoC4/RTC.h **** ****************************************************************************//**
 712:Generated_Source\PSoC4/RTC.h **** *
 713:Generated_Source\PSoC4/RTC.h **** * Returns the AM/PM status from the time value that is passed as parameter.
 714:Generated_Source\PSoC4/RTC.h **** *
 715:Generated_Source\PSoC4/RTC.h **** * \param inputTime
 716:Generated_Source\PSoC4/RTC.h **** * The time value.
 717:Generated_Source\PSoC4/RTC.h **** *
 718:Generated_Source\PSoC4/RTC.h **** * \return
 719:Generated_Source\PSoC4/RTC.h **** * The am/pm period of day, see \ref group_rtc_am_pm.
 720:Generated_Source\PSoC4/RTC.h **** *
 721:Generated_Source\PSoC4/RTC.h **** *******************************************************************************/
 722:Generated_Source\PSoC4/RTC.h **** static CY_INLINE uint32 RTC_GetAmPm(uint32 inputTime)
 723:Generated_Source\PSoC4/RTC.h **** {
 724:Generated_Source\PSoC4/RTC.h ****     return (RTC_IsBitSet(inputTime, RTC_PERIOD_OF_DAY_MASK));
 725:Generated_Source\PSoC4/RTC.h **** }
 726:Generated_Source\PSoC4/RTC.h **** 
 727:Generated_Source\PSoC4/RTC.h **** 
 728:Generated_Source\PSoC4/RTC.h **** /*******************************************************************************
 729:Generated_Source\PSoC4/RTC.h **** * Function Name: RTC_GetDay
 730:Generated_Source\PSoC4/RTC.h **** ****************************************************************************//**
 731:Generated_Source\PSoC4/RTC.h **** *
 732:Generated_Source\PSoC4/RTC.h **** * Returns the day value from the date value that is passed as parameter.
 733:Generated_Source\PSoC4/RTC.h **** *
 734:Generated_Source\PSoC4/RTC.h **** * \param date
 735:Generated_Source\PSoC4/RTC.h **** * The date value.
 736:Generated_Source\PSoC4/RTC.h **** *
 737:Generated_Source\PSoC4/RTC.h **** * \return
 738:Generated_Source\PSoC4/RTC.h **** * The day value.
ARM GAS  C:\Users\jimmy\AppData\Local\Temp\ccFysI3U.s 			page 25


 739:Generated_Source\PSoC4/RTC.h **** *
 740:Generated_Source\PSoC4/RTC.h **** *******************************************************************************/
 741:Generated_Source\PSoC4/RTC.h **** static CY_INLINE uint32 RTC_GetDay(uint32 date)
 742:Generated_Source\PSoC4/RTC.h **** {
 743:Generated_Source\PSoC4/RTC.h ****     uint32 retVal;
 744:Generated_Source\PSoC4/RTC.h **** 
 745:Generated_Source\PSoC4/RTC.h ****     retVal  = ((date & RTC_10_DAY_MASK) >> RTC_10_DAY_OFFSET) * 10u;
 746:Generated_Source\PSoC4/RTC.h ****     retVal += (date & RTC_DAY_MASK) >> RTC_DAY_OFFSET;
 747:Generated_Source\PSoC4/RTC.h **** 
 748:Generated_Source\PSoC4/RTC.h ****     return (retVal);
 749:Generated_Source\PSoC4/RTC.h **** }
 750:Generated_Source\PSoC4/RTC.h **** 
 751:Generated_Source\PSoC4/RTC.h **** 
 752:Generated_Source\PSoC4/RTC.h **** /*******************************************************************************
 753:Generated_Source\PSoC4/RTC.h **** * Function Name: RTC_GetMonth
 754:Generated_Source\PSoC4/RTC.h **** ****************************************************************************//**
 755:Generated_Source\PSoC4/RTC.h **** *
 756:Generated_Source\PSoC4/RTC.h **** * Returns the month value from the date value that is passed as parameter.
 757:Generated_Source\PSoC4/RTC.h **** *
 758:Generated_Source\PSoC4/RTC.h **** * \param date
 759:Generated_Source\PSoC4/RTC.h **** * The date value.
 760:Generated_Source\PSoC4/RTC.h **** *
 761:Generated_Source\PSoC4/RTC.h **** * \return
 762:Generated_Source\PSoC4/RTC.h **** * The month value.
 763:Generated_Source\PSoC4/RTC.h **** *
 764:Generated_Source\PSoC4/RTC.h **** *******************************************************************************/
 765:Generated_Source\PSoC4/RTC.h **** static CY_INLINE uint32 RTC_GetMonth(uint32 date)
 766:Generated_Source\PSoC4/RTC.h **** {
 767:Generated_Source\PSoC4/RTC.h ****     uint32 retVal;
 768:Generated_Source\PSoC4/RTC.h **** 
 769:Generated_Source\PSoC4/RTC.h ****     retVal  = ((date & RTC_10_MONTH_MASK) >> RTC_10_MONTH_OFFSET) * 10u;
 345              		.loc 2 769 0
 346 00c0 230F     		lsrs	r3, r4, #28
 347 00c2 0122     		movs	r2, #1
 348 00c4 1340     		ands	r3, r2
 349 00c6 9A00     		lsls	r2, r3, #2
 350 00c8 D318     		adds	r3, r2, r3
 351 00ca 5900     		lsls	r1, r3, #1
 352              	.LVL40:
 770:Generated_Source\PSoC4/RTC.h ****     retVal += (date & RTC_MONTH_MASK) >> RTC_MONTH_OFFSET;
 353              		.loc 2 770 0
 354 00cc 220E     		lsrs	r2, r4, #24
 355 00ce 3240     		ands	r2, r6
 356 00d0 8A18     		adds	r2, r1, r2
 357              	.LVL41:
 358              	.LBE21:
 359              	.LBE20:
 360              	.LBB22:
 361              	.LBB23:
 745:Generated_Source\PSoC4/RTC.h ****     retVal += (date & RTC_DAY_MASK) >> RTC_DAY_OFFSET;
 362              		.loc 2 745 0
 363 00d2 210D     		lsrs	r1, r4, #20
 364 00d4 4346     		mov	r3, r8
 365 00d6 1940     		ands	r1, r3
 366 00d8 8B00     		lsls	r3, r1, #2
 367 00da 5918     		adds	r1, r3, r1
 368 00dc 4800     		lsls	r0, r1, #1
ARM GAS  C:\Users\jimmy\AppData\Local\Temp\ccFysI3U.s 			page 26


 369              	.LVL42:
 746:Generated_Source\PSoC4/RTC.h **** 
 370              		.loc 2 746 0
 371 00de 230C     		lsrs	r3, r4, #16
 372 00e0 3340     		ands	r3, r6
 373 00e2 C318     		adds	r3, r0, r3
 374              	.LVL43:
 375              	.LBE23:
 376              	.LBE22:
 377              	.LBB24:
 378              	.LBB25:
 771:Generated_Source\PSoC4/RTC.h **** 
 772:Generated_Source\PSoC4/RTC.h ****     return (retVal);
 773:Generated_Source\PSoC4/RTC.h **** }
 774:Generated_Source\PSoC4/RTC.h **** 
 775:Generated_Source\PSoC4/RTC.h **** 
 776:Generated_Source\PSoC4/RTC.h **** /*******************************************************************************
 777:Generated_Source\PSoC4/RTC.h **** * Function Name: RTC_GetYear
 778:Generated_Source\PSoC4/RTC.h **** ****************************************************************************//**
 779:Generated_Source\PSoC4/RTC.h **** *
 780:Generated_Source\PSoC4/RTC.h **** * Returns the year value from the date value that is passed as parameter.
 781:Generated_Source\PSoC4/RTC.h **** *
 782:Generated_Source\PSoC4/RTC.h **** * \param date
 783:Generated_Source\PSoC4/RTC.h **** * The date value.
 784:Generated_Source\PSoC4/RTC.h **** *
 785:Generated_Source\PSoC4/RTC.h **** * \return
 786:Generated_Source\PSoC4/RTC.h **** * The year value.
 787:Generated_Source\PSoC4/RTC.h **** *
 788:Generated_Source\PSoC4/RTC.h **** *******************************************************************************/
 789:Generated_Source\PSoC4/RTC.h **** static CY_INLINE uint32 RTC_GetYear(uint32 date)
 790:Generated_Source\PSoC4/RTC.h **** {
 791:Generated_Source\PSoC4/RTC.h ****     uint32 retVal;
 792:Generated_Source\PSoC4/RTC.h **** 
 793:Generated_Source\PSoC4/RTC.h ****     retVal  = ((date & RTC_1000_YEAR_MASK) >> RTC_1000_YEAR_OFFSET) * 1000u;
 379              		.loc 2 793 0
 380 00e4 200B     		lsrs	r0, r4, #12
 381 00e6 4146     		mov	r1, r8
 382 00e8 0840     		ands	r0, r1
 383 00ea FA25     		movs	r5, #250
 384 00ec AD00     		lsls	r5, r5, #2
 385 00ee 2900     		movs	r1, r5
 386 00f0 4143     		muls	r1, r0
 387              	.LVL44:
 794:Generated_Source\PSoC4/RTC.h ****     retVal += ((date & RTC_100_YEAR_MASK) >> RTC_100_YEAR_OFFSET) * 100u;
 388              		.loc 2 794 0
 389 00f2 200A     		lsrs	r0, r4, #8
 390 00f4 3040     		ands	r0, r6
 391 00f6 6425     		movs	r5, #100
 392 00f8 6843     		muls	r0, r5
 393 00fa 4018     		adds	r0, r0, r1
 394              	.LVL45:
 795:Generated_Source\PSoC4/RTC.h ****     retVal += ((date & RTC_10_YEAR_MASK) >> RTC_10_YEAR_OFFSET) * 10u;
 395              		.loc 2 795 0
 396 00fc 2109     		lsrs	r1, r4, #4
 397 00fe 3140     		ands	r1, r6
 398 0100 8D00     		lsls	r5, r1, #2
 399 0102 6918     		adds	r1, r5, r1
ARM GAS  C:\Users\jimmy\AppData\Local\Temp\ccFysI3U.s 			page 27


 400 0104 4D00     		lsls	r5, r1, #1
 401 0106 4019     		adds	r0, r0, r5
 402              	.LVL46:
 796:Generated_Source\PSoC4/RTC.h ****     retVal += (date & RTC_YEAR_MASK) >> RTC_YEAR_OFFSET;
 403              		.loc 2 796 0
 404 0108 3440     		ands	r4, r6
 405              	.LVL47:
 406 010a 0419     		adds	r4, r0, r4
 407              	.LVL48:
 408              	.LBE25:
 409              	.LBE24:
 154:main.c        **** 
 410              		.loc 1 154 0
 411 010c 0094     		str	r4, [sp]
 412 010e 1B49     		ldr	r1, .L15+36
 413 0110 02A8     		add	r0, sp, #8
 414 0112 FFF7FEFF 		bl	sprintf
 415              	.LVL49:
 156:main.c        ****         UART_PutString(" | ");
 416              		.loc 1 156 0
 417 0116 06A8     		add	r0, sp, #24
 418 0118 FFF7FEFF 		bl	UART_PutString
 419              	.LVL50:
 157:main.c        ****         UART_PutString(dateBuffer);
 420              		.loc 1 157 0
 421 011c 184C     		ldr	r4, .L15+40
 422 011e 2000     		movs	r0, r4
 423 0120 FFF7FEFF 		bl	UART_PutString
 424              	.LVL51:
 158:main.c        ****         UART_PutString(" | ");
 425              		.loc 1 158 0
 426 0124 02A8     		add	r0, sp, #8
 427 0126 FFF7FEFF 		bl	UART_PutString
 428              	.LVL52:
 159:main.c        **** 
 429              		.loc 1 159 0
 430 012a 2000     		movs	r0, r4
 431 012c FFF7FEFF 		bl	UART_PutString
 432              	.LVL53:
 161:main.c        ****         {
 433              		.loc 1 161 0
 434 0130 7B68     		ldr	r3, [r7, #4]
 435 0132 012B     		cmp	r3, #1
 436 0134 06D1     		bne	.L12
 163:main.c        ****             alarmFlag  = 0u;
 437              		.loc 1 163 0
 438 0136 1348     		ldr	r0, .L15+44
 439 0138 FFF7FEFF 		bl	UART_PutString
 440              	.LVL54:
 164:main.c        ****         }
 441              		.loc 1 164 0
 442 013c 0022     		movs	r2, #0
 443 013e 0D4B     		ldr	r3, .L15+28
 444 0140 5A60     		str	r2, [r3, #4]
 445 0142 02E0     		b	.L13
 446              	.L12:
 168:main.c        ****         }
ARM GAS  C:\Users\jimmy\AppData\Local\Temp\ccFysI3U.s 			page 28


 447              		.loc 1 168 0
 448 0144 1048     		ldr	r0, .L15+48
 449 0146 FFF7FEFF 		bl	UART_PutString
 450              	.LVL55:
 451              	.L13:
 171:main.c        **** 
 452              		.loc 1 171 0
 453 014a 1048     		ldr	r0, .L15+52
 454 014c FFF7FEFF 		bl	UART_PutString
 455              	.LVL56:
 174:main.c        ****     }
 456              		.loc 1 174 0
 457 0150 FFF7FEFF 		bl	CySysPmDeepSleep
 458              	.LVL57:
 175:main.c        **** }
 459              		.loc 1 175 0
 460 0154 8BE7     		b	.L14
 461              	.L16:
 462 0156 C046     		.align	2
 463              	.L15:
 464 0158 00000000 		.word	alarmTimeDate
 465 015c 30010400 		.word	262448
 466 0160 20201008 		.word	135274528
 467 0164 00000000 		.word	EnableRtcOperation
 468 0168 CC0C0000 		.word	3276
 469 016c 00481300 		.word	1263616
 470 0170 00000000 		.word	AlarmIsrHandler
 471 0174 00000000 		.word	.LANCHOR0
 472 0178 00000000 		.word	.LC6
 473 017c 18000000 		.word	.LC9
 474 0180 2C000000 		.word	.LC11
 475 0184 30000000 		.word	.LC13
 476 0188 3C000000 		.word	.LC15
 477 018c 48000000 		.word	.LC17
 478              		.cfi_endproc
 479              	.LFE63:
 480              		.size	main, .-main
 481              		.global	ui100mS
 482              		.global	alarmFlag
 483              		.comm	alarmTimeDate,16,4
 484              		.section	.rodata.str1.4,"aMS",%progbits,1
 485              		.align	2
 486              	.LC6:
 487 0000 2530326C 		.ascii	"%02lu:%02lu:%02lu.%1lu\000"
 487      753A2530 
 487      326C753A 
 487      2530326C 
 487      752E2531 
 488 0017 00       		.space	1
 489              	.LC9:
 490 0018 2530326C 		.ascii	"%02lu/%02lu/%02lu\000"
 490      752F2530 
 490      326C752F 
 490      2530326C 
 490      7500
 491 002a 0000     		.space	2
 492              	.LC11:
ARM GAS  C:\Users\jimmy\AppData\Local\Temp\ccFysI3U.s 			page 29


 493 002c 207C2000 		.ascii	" | \000"
 494              	.LC13:
 495 0030 2020416C 		.ascii	"  Alarm \000"
 495      61726D20 
 495      00
 496 0039 000000   		.space	3
 497              	.LC15:
 498 003c 4E6F2061 		.ascii	"No alarm\000"
 498      6C61726D 
 498      00
 499 0045 000000   		.space	3
 500              	.LC17:
 501 0048 0D00     		.ascii	"\015\000"
 502              		.bss
 503              		.align	2
 504              		.set	.LANCHOR0,. + 0
 505              		.type	ui100mS, %object
 506              		.size	ui100mS, 4
 507              	ui100mS:
 508 0000 00000000 		.space	4
 509              		.type	alarmFlag, %object
 510              		.size	alarmFlag, 4
 511              	alarmFlag:
 512 0004 00000000 		.space	4
 513              		.text
 514              	.Letext0:
 515              		.file 3 "Generated_Source\\PSoC4/cytypes.h"
 516              		.file 4 "Generated_Source\\PSoC4/CyLFClk.h"
 517              		.file 5 "Generated_Source\\PSoC4/LFCLK_Out.h"
 518              		.file 6 "Generated_Source\\PSoC4/LED_WdtIsr.h"
 519              		.file 7 "Generated_Source\\PSoC4/LED_Alarm.h"
 520              		.file 8 "c:\\program files (x86)\\cypress\\psoc creator\\4.3\\psoc creator\\import\\gnu\\arm\\5.4.
 521              		.file 9 "Generated_Source\\PSoC4/UART.h"
 522              		.file 10 "Generated_Source\\PSoC4/cyPm.h"